(dp1
S'output'
p2
S"<type 'exceptions.NameError'> name 'score' is not defined"
p3
sS'layer'
p4
S'/ug/ug2k13/cse/sharvil.katariya/Downloads/web2py/applications/quiztopher/views/default/stats.html'
p5
sS'code'
p6
S'response.write(\'<!DOCTYPE html PUBLIC "-//W3C//DTD XHTML 1.0 Transitional//EN" "http://www.w3.org/TR/xhtml1/DTD/xhtml1-transitional.dtd">\\n<!--\\nAuthor: Reality Software\\nWebsite: http://www.realitysoftware.ca\\nNote: This is a free template released under the Creative Commons Attribution 3.0 license, \\nwhich means you can use it in any way you want provided you keep the link to the author intact.\\n-->\\n<html xmlns="http://www.w3.org/1999/xhtml">\\n <head>\\n\\n\\n  <title>\\n   \', escape=False)\nresponse.write(response.title or request.application)\nresponse.write(\'\\n  </title>\\n  \', escape=False)\nresponse.files.append(URL(request.application,\'static\',\'plugin_layouts/layouts/RedCity/style.css\'))\nresponse.write(\'\\n  \', escape=False)\nresponse.files.append(URL(\'static\',\'plugin_layouts/superfish.js\'))\nresponse.write(\'\\n  \', escape=False)\nresponse.write(\'<script type="text/javascript"><!--\\n    // These variables are used by the web2py_ajax_init function in web2py_ajax.js (which is loaded below).\\n    var w2p_ajax_confirm_message = "\', escape=False)\nresponse.write(T(\'Are you sure you want to delete this object?\'))\nresponse.write(\'";\\n    var w2p_ajax_disable_with_message = "\', escape=False)\nresponse.write(T(\'Working...\'))\nresponse.write(\'";\\n    var w2p_ajax_date_format = "\', escape=False)\nresponse.write(T(\'%Y-%m-%d\'))\nresponse.write(\'";\\n    var w2p_ajax_datetime_format = "\', escape=False)\nresponse.write(T(\'%Y-%m-%d %H:%M:%S\'))\nresponse.write(\'";\\n    var ajax_error_500 = \\\'\', escape=False)\nresponse.write(T.M(\'An error occured, please [[reload %s]] the page\') % URL(args=request.args, vars=request.get_vars))\nresponse.write("\'\\n    //--></script>\\n", escape=False)\nresponse.files.insert(0,URL(\'static\',\'js/jquery.js\'))\nresponse.files.insert(1,URL(\'static\',\'css/calendar.css\'))\nresponse.files.insert(2,URL(\'static\',\'js/calendar.js\'))\nresponse.files.insert(3,URL(\'static\',\'js/web2py.js\'))\nresponse.include_meta()\nresponse.include_files()\nresponse.write(\'\\n\', escape=False)\nresponse.write(\'\\n  <style>\\nul.web2py-menu-vertical { width: 150px; position: relative; top:1em; left:1em;  z-index:30; border:0; margin:0; padding: 0; list-style: none; text-decoration: none;}\\nul.web2py-menu-vertical li { margin:0; padding:0; border:0; width: 150px; background: black; text-align:left;}\\nul.web2py-menu-vertical li a { margin:0; padding: 1px 3px 1px 3px; border:0; width: 144px; color: white; font-size:12px;}\\ndiv.flash { position: fixed; float: right; padding: 10px; top: 10px; right: 30px; opacity: 0.75; margin: 10px 10px 10px 10px; text-align: center; clear: both; color: #fff; font-size: 11pt; text-align: center; vertical-align: middle; cursor: pointer; background: black; border: 2px solid #fff; -moz-border-radius: 5px; -webkit-border-radius: 5px; z-index: 2; }\\ndiv.error { background-color: red; color: white; padding: 3px; }\\n.auth_navbar { text-align:right; z-index:20; position: absolute; top: 2px; right:30px; border:0; padding:0 }\\n  </style>\\n </head>\\n <body>\\n  <!-- start header -->\\n  \', escape=False)\ntry:\n    response.write(auth.navbar(action=URL(\'default\',\'user\')))\nexcept:pass\nresponse.write(\'\\n\\n  <div id="container">\\n   <!-- header -->\\n   <div id="header">\\n    <div id="logo">\\n     <a href="#">\\n      \', escape=False)\nresponse.write(T("Quiztopher"))\nresponse.write(\'\\n     </a>\\n    </div>\\n    <div id="menu">\\n     \', escape=False)\nresponse.write(MENU(response.menu,_class=\'web2py-menu\'))\nresponse.write(\'\\n    <script>\\n      jQuery(document).ready(function(){jQuery(\\\'ul.web2py-menu\\\').superfish({delay:400});});\\n    </script>\\n    </div>\\n   </div>\\n   <!--end header -->\\n   <!-- main -->\\n   <div id="main">\\n    <div id="content">\\n     \', escape=False)\nresponse.write("\\n\\n\\n<link href=\'http://fonts.googleapis.com/css?family=Nothing+You+Could+Do\' rel=\'stylesheet\' type=\'text/css\'>\\n\\n<style>\\n@import url(http://fonts.googleapis.com/css?family=Fredericka+the+Great);\\nbody\\n{\\n\\tcolor: black;\\n\\tcolor: rgba(0,0,0,0.8);\\n\\tfont-family: \'Nothing You Could Do\', cursive;\\n\\tfont-weight: 700;\\n\\tfont-size: 20px;\\n\\ttext-align: left;\\n\\tpadding-left: 30px;\\n}\\n\\n</style>\\n\\n", escape=False)\nresponse.write(rows)\nresponse.write(\'\\n<script src="\', escape=False)\nresponse.write(URL(\'static\',\'js/RGraph.common.core.js\'))\nresponse.write(\'"></script>\\n<script src="\', escape=False)\nresponse.write(URL(\'static\',\'js/RGraph.common.dynamic.js\'))\nresponse.write(\'"></script>\\n<script src="\', escape=False)\nresponse.write(URL(\'static\',\'js/RGraph.common.key.js\'))\nresponse.write(\'"></script>\\n<script src="\', escape=False)\nresponse.write(URL(\'static\',\'js/RGraph.common.tooltips.js\'))\nresponse.write(\'"></script>\\n<script src="\', escape=False)\nresponse.write(URL(\'static\',\'js/RGraph.drawing.rect.js\'))\nresponse.write(\'"></script>\\n<script src="\', escape=False)\nresponse.write(URL(\'static\',\'js/RGraph.line.js\'))\nresponse.write(\'"></script>\\n<script src="\', escape=False)\nresponse.write(URL(\'static\',\'js/RGraph.pie.js\'))\nresponse.write(\'"></script>\\n<script src="\', escape=False)\nresponse.write(URL(\'static\',\'js/excanvas.js\'))\nresponse.write(\'"></script>\\n\\n<canvas id="average" width="450" height="350" style="border: 0px solid gray">[No canvas support]</canvas>\\n\\n<div style="position: relative">\\n\\t<canvas id="score" width="900" height="250">[No canvas support]</canvas>\\n</div>\\n\\n<script>\\nwindow.onload = function ()\\n{\\n\\tvar pie = new RGraph.Pie(\\\'average\\\', [ \', escape=False)\nresponse.write(correct)\nresponse.write(\', \\n\\t\\t\', escape=False)\nresponse.write(wrong)\nresponse.write(\',\\n\\t\\t\', escape=False)\nresponse.write(unattempted)\nresponse.write(\', \\n\\t\\t\', escape=False)\nresponse.write(avg_score)\nresponse.write("] )\\n\\t.Set(\'title\', \'Average User Stats\')\\n\\t.Set(\'key\', [\'", escape=False)\nresponse.write(T(\'Correct Answer\'))\nresponse.write("\', \'", escape=False)\nresponse.write(T(\'Wrong Answer\'))\nresponse.write("\', \'", escape=False)\nresponse.write(T(\'Unattempted\'))\nresponse.write("\', \'", escape=False)\nresponse.write(T(\'Score\'))\nresponse.write("\' ] )\\n\\t.Set(\'key.colors\', [\'red\', \'#ccc\', \'#0f0\', \'#00f\'] )\\n\\t.Set(\'key.interactive\', true)\\n\\t.Set(\'key.rounded\', false)\\n\\t.Set(\'radius\', 70)\\n\\t.Set(\'tooltips\', [\'", escape=False)\nresponse.write(T(\'Correct Answer(s)\'))\nresponse.write(\' : \', escape=False)\nresponse.write(correct)\nresponse.write("\', \\n\\t\\t\'", escape=False)\nresponse.write(T(\'Wrong Answer(s)\'))\nresponse.write(\' : \', escape=False)\nresponse.write(wrong)\nresponse.write("\', \\n\\t\\t\'", escape=False)\nresponse.write(T(\'Unattempted\'))\nresponse.write(\' : \', escape=False)\nresponse.write(unattempted)\nresponse.write("\', \\n\\t\\t\'", escape=False)\nresponse.write(T(\'Score\'))\nresponse.write(\' : \', escape=False)\nresponse.write(avg_score)\nresponse.write("\' ] )\\n\\t.Draw();\\n\\timport json\\n\\tscores=json.dumps(", escape=False)\nresponse.write(score)\nresponse.write(")\\n\\tvar line_sale_order = new RGraph.Line(\'score\', [ 60000, 80000, 70000, 90000, 50000 ] )\\n\\t.Set(\'labels\', [ \'01 March\', \'02 March\', \'03 March\', \'04 March\', \'05 March\' ])\\n\\t.Set(\'tooltips\', [ \'01 March : 60000\', \'02 March : 80000\', \'03 March: 70000\', \'04 March : 90000\', \'05 March : 50000\' ] )\\n\\t.Set(\'title\', \'", escape=False)\nresponse.write(T(\'Scores\'))\nresponse.write("\' )\\n\\t.Set(\'gutter.left\', 100)\\n\\t.Set(\'colors.alternate\', true)\\n\\t.Set(\'colors\', [ [\'blue\', \'red\'] ] )\\n\\t.Set(\'linewidth\', 3)\\n\\t.Set(\'crosshairs\', true)\\n\\t.Set(\'crosshairs.snap\', true)\\n\\t.Set(\'shadow\', true)\\n\\t.Set(\'tickmarks\', \'filledcircle\')\\n\\t.Set(\'ticksize\', 3)\\n\\t.Draw();\\n}\\n</script>\\n\\n", escape=False)\nresponse.write(\'\\n    </div>\\n   </div>\\n   <!-- end main -->\\n \\n  </div>\\n </body>\\n</html>\\n\', escape=False)'
p7
sS'snapshot'
p8
(dp9
sS'traceback'
p10
S'Traceback (most recent call last):\n  File "/ug/ug2k13/cse/sharvil.katariya/Downloads/web2py/gluon/restricted.py", line 220, in restricted\n    exec ccode in environment\n  File "/ug/ug2k13/cse/sharvil.katariya/Downloads/web2py/applications/quiztopher/views/default/stats.html", line 86, in <module>\nNameError: name \'score\' is not defined\n'
p11
s.