(dp1
S'output'
p2
S"<type 'exceptions.AttributeError'> 'DAL' object has no attribute 'register'"
p3
sS'layer'
p4
S'/ug/ug2k13/cse/sharvil.katariya/Downloads/web2py/applications/project/controllers/default.py'
p5
sS'code'
p6
S'# -*- coding: utf-8 -*-\n# this file is released under public domain and you can use without limitations\n\n#########################################################################\n## This is a sample controller\n## - index is the default action of any application\n## - user is required for authentication and authorization\n## - download is for downloading files uploaded in the db (does streaming)\n## - call exposes all registered services (none by default)\n#########################################################################\n\n\ndef index():\n    """\n    example action using the internationalization operator T and flash\n    rendered by views/default/index.html or views/generic.html\n\n    if you need a simple wiki simply replace the two lines below with:\n    return auth.wiki()\n    """\n    response.flash = T("Welcome to web2py!")\n    return dict(message=T(\'Hello World\'))\n\n\ndef all_records():\n    grid = SQLFORM.grid(db.register,user_signature=False)\n    return locals()\n\ndef reg():\n    form = SQLFORM(db[auth.settings.table_user_name])\n    if form.accepts(request,session):\n        response.flash = T(\'Thanks! The form has been submitted.\')\n    elif form.errors:\n       response.flash = T(\'Please correct the error(s).\')\n    else:\n       response.flash = T(\'Input the details in the fields\')\n    return dict(form=form)\n\ndef profile():\n    return dict(form=auth.profile)\n\ndef register():\n    form=auth.register()\n    if form.accepts(request,session):\n        response.flash = T(\'Thanks! The form has been submitted.\')\n    elif form.errors:\n       response.flash = T(\'Please correct the error(s).\')\n    else:\n       response.flash = T(\'Input the details in the fields\')\n    return dict(form=form)\n\ndef user():\n    """\n    exposes:\n    http://..../[app]/default/user/login\n    http://..../[app]/default/user/logout\n    http://..../[app]/default/user/register\n    http://..../[app]/default/user/profile\n    http://..../[app]/default/user/retrieve_password\n    http://..../[app]/default/user/change_password\n    http://..../[app]/default/user/manage_users (requires membership in\n    use @auth.requires_login()\n        @auth.requires_membership(\'group name\')\n        @auth.requires_permission(\'read\',\'table name\',record_id)\n    to decorate functions that need access control\n    """\n    return dict(form=auth())\n\n@cache.action()\ndef download():\n    """\n    allows downloading of uploaded files\n    http://..../[app]/default/download/[filename]\n    """\n    return response.download(request, db)\n\n\ndef call():\n    """\n    exposes services. for example:\n    http://..../[app]/default/call/jsonrpc\n    decorate with @services.jsonrpc the functions to expose\n    supports xml, json, xmlrpc, jsonrpc, amfrpc, rss, csv\n    """\n    return service()\n\n\n@auth.requires_signature()\ndef data():\n    """\n    http://..../[app]/default/data/tables\n    http://..../[app]/default/data/create/[table]\n    http://..../[app]/default/data/read/[table]/[id]\n    http://..../[app]/default/data/update/[table]/[id]\n    http://..../[app]/default/data/delete/[table]/[id]\n    http://..../[app]/default/data/select/[table]\n    http://..../[app]/default/data/search/[table]\n    but URLs must be signed, i.e. linked with\n      A(\'table\',_href=URL(\'data/tables\',user_signature=True))\n    or with the signed load operator\n      LOAD(\'default\',\'data.load\',args=\'tables\',ajax=True,user_signature=True)\n    """\n    return dict(form=crud())\n\nresponse._vars=response._caller(register)\n'
p7
sS'snapshot'
p8
(dp9
sS'traceback'
p10
S'Traceback (most recent call last):\n  File "/ug/ug2k13/cse/sharvil.katariya/Downloads/web2py/gluon/restricted.py", line 217, in restricted\n    exec ccode in environment\n  File "/ug/ug2k13/cse/sharvil.katariya/Downloads/web2py/applications/project/controllers/default.py", line 105, in <module>\n  File "/ug/ug2k13/cse/sharvil.katariya/Downloads/web2py/gluon/globals.py", line 385, in <lambda>\n    self._caller = lambda f: f()\n  File "/ug/ug2k13/cse/sharvil.katariya/Downloads/web2py/applications/project/controllers/default.py", line 44, in register\n    if form.accepts(request,session):\n  File "/ug/ug2k13/cse/sharvil.katariya/Downloads/web2py/gluon/sqlhtml.py", line 1381, in accepts\n    **kwargs\n  File "/ug/ug2k13/cse/sharvil.katariya/Downloads/web2py/gluon/html.py", line 2039, in accepts\n    status = self._traverse(status, hideerror)\n  File "/ug/ug2k13/cse/sharvil.katariya/Downloads/web2py/gluon/html.py", line 847, in _traverse\n    newstatus = c._traverse(status, hideerror) and newstatus\n  File "/ug/ug2k13/cse/sharvil.katariya/Downloads/web2py/gluon/html.py", line 847, in _traverse\n    newstatus = c._traverse(status, hideerror) and newstatus\n  File "/ug/ug2k13/cse/sharvil.katariya/Downloads/web2py/gluon/html.py", line 847, in _traverse\n    newstatus = c._traverse(status, hideerror) and newstatus\n  File "/ug/ug2k13/cse/sharvil.katariya/Downloads/web2py/gluon/html.py", line 847, in _traverse\n    newstatus = c._traverse(status, hideerror) and newstatus\n  File "/ug/ug2k13/cse/sharvil.katariya/Downloads/web2py/gluon/html.py", line 854, in _traverse\n    newstatus = self._validate()\n  File "/ug/ug2k13/cse/sharvil.katariya/Downloads/web2py/gluon/html.py", line 1784, in _validate\n    (value, errors) = validator(value)\n  File "/ug/ug2k13/cse/sharvil.katariya/Downloads/web2py/gluon/validators.py", line 657, in __call__\n    table = self.dbset.db[tablename]\n  File "/ug/ug2k13/cse/sharvil.katariya/Downloads/web2py/gluon/dal.py", line 8322, in __getitem__\n    return self.__getattr__(str(key))\n  File "/ug/ug2k13/cse/sharvil.katariya/Downloads/web2py/gluon/dal.py", line 8329, in __getattr__\n    return ogetattr(self, key)\nAttributeError: \'DAL\' object has no attribute \'register\'\n'
p11
s.