(dp1
S'output'
p2
S"<type 'exceptions.AttributeError'> 'NoneType' object has no attribute 'value'"
p3
sS'layer'
p4
S'/home/dell/Downloads/web2py/applications/practice1/controllers/default.py'
p5
sS'code'
p6
S'# -*- coding: utf-8 -*-\n# this file is released under public domain and you can use without limitations\n\n#########################################################################\n## This is a sample controller\n## - index is the default action of any application\n## - user is required for authentication and authorization\n## - download is for downloading files uploaded in the db (does streaming)\n## - call exposes all registered services (none by default)\n#########################################################################\n\n\ndef index():\n    """\n    example action using the internationalization operator T and flash\n    rendered by views/default/index.html or views/generic.html\n\n    if you need a simple wiki simply replace the two lines below with:\n    return auth.wiki()\n    """\n    response.flash = T("Welcome to web2py!")\n    return dict(message=T(\'Hello World\'))\n\n\ndef java():\n        return dict()\n\ndef user():\n    """\n    exposes:\n    http://..../[app]/default/user/login\n    http://..../[app]/default/user/logout\n    http://..../[app]/default/user/register\n    http://..../[app]/default/user/profile\n    http://..../[app]/default/user/retrieve_password\n    http://..../[app]/default/user/change_password\n    http://..../[app]/default/user/manage_users (requires membership in\n    use @auth.requires_login()\n        @auth.requires_membership(\'group name\')\n        @auth.requires_permission(\'read\',\'table name\',record_id)\n    to decorate functions that need access control\n    """\n    return dict(form=auth())\n\n@cache.action()\ndef download():\n    """\n    allows downloading of uploaded files\n    http://..../[app]/default/download/[filename]\n    """\n    return response.download(request, db)\n\n\ndef call():\n    """\n    exposes services. for example:\n    http://..../[app]/default/call/jsonrpc\n    decorate with @services.jsonrpc the functions to expose\n    supports xml, json, xmlrpc, jsonrpc, amfrpc, rss, csv\n    """\n    return service()\n\n\n@auth.requires_signature()\ndef data():\n    """\n    http://..../[app]/default/data/tables\n    http://..../[app]/default/data/create/[table]\n    http://..../[app]/default/data/read/[table]/[id]\n    http://..../[app]/default/data/update/[table]/[id]\n    http://..../[app]/default/data/delete/[table]/[id]\n    http://..../[app]/default/data/select/[table]\n    http://..../[app]/default/data/search/[table]\n    but URLs must be signed, i.e. linked with\n      A(\'table\',_href=URL(\'data/tables\',user_signature=True))\n    or with the signed load operator\n      LOAD(\'default\',\'data.load\',args=\'tables\',ajax=True,user_signature=True)\n    """\n    return dict(form=crud())\n\n#serialNumber = 0\n\ndef Topic():\n  print \'called\'\n  session.topic = request.vars.top\n#  session.topic = request.vars.top\n#  redirect(URL("quiz"))\n\ndef quizTopic():\n  if request.vars.topic is not None:\n    session.topic = request.vars.topic\n    redirect(URL("quiz"))\n  return dict()     \n\ndef quiz():\n   if session.topic == \'Football\':\n        var=db(db.Football.Serial == 1).select()\n       # return dict(var=var)\n   if session.topic == \'International\':\n        var = db(db.International.Serial == 1).select()\n   var1 = request.vars.option\n   session.counter = 1\n   return dict(var = var) \n\ndef nextQuestion():\n   session.counter+=1\n   if session.topic == \'Football\':\n       var2=db(db.Football.Serial == session.counter).select()\n   if session.topic == \'International\':\n       var2 = db(db.International.Serial == session.counter).select()\n   d={}\n   for i in var2:\n        d["serial"]=i.Serial\n        d["question"]=i.question\n        d["opt1"]=i.opt1\n        d["opt2"]=i.opt2\n   \n\n   import json\n   s = json.dumps(d)\n#   print request.vars.SerialNumber\n#   index = request.vars.SerialNumber - 1\n#   try:\n#        session.ans[index]\n#         response.flash = "You selected " + session.ans[index]\n#   except:\n#        response.flash = "Select an option"\n   return s      \n\n\ndef prevQuestion():\n   session.counter-=1\n   if session.topic == \'Football\':\n       var2=db(db.Football.Serial == session.counter).select()\n   if session.topic == \'International\':\n       var2 = db(db.International.Serial == session.counter).select()\n   d={}\n   for i in var2:\n        d["serial"]=i.Serial\n        d["question"]=i.question\n        d["opt1"]=i.opt1\n        d["opt2"]=i.opt2\n   import json\n   s = json.dumps(d)\n\n#   index = request.vars.SerialNumber - 1\n#   try:\n#        session.ans[index]\n#        response.flash = "You selected " + session.ans[index]\n#   except:\n#        response.flash = "Select an option"\n   return s      \n\ndef selectedOption():\n#   index = request.vars.SerialNumber - 1\n#   serialNumber = request.vars.SerialNumber\n#   response.flash = "You selected " + request.vars.value\n    numb = session.num\n#   print request.vars.SerialNumber\n    if session.ansDict is None:\n       session.ansDict = {}\n    session.ansDict[numb] = request.vars.value\n    response.flash = "You selected " + session.vars.value\n\ndef tempSave():\n    session.num = request.vars.SerialNumber\n\nresponse._vars=response._caller(selectedOption)\n'
p7
sS'snapshot'
p8
(dp9
sS'traceback'
p10
S'Traceback (most recent call last):\n  File "/home/dell/Downloads/web2py/gluon/restricted.py", line 217, in restricted\n    exec ccode in environment\n  File "/home/dell/Downloads/web2py/applications/practice1/controllers/default.py", line 168, in <module>\n  File "/home/dell/Downloads/web2py/gluon/globals.py", line 385, in <lambda>\n    self._caller = lambda f: f()\n  File "/home/dell/Downloads/web2py/applications/practice1/controllers/default.py", line 163, in selectedOption\n    response.flash = "You selected " + session.vars.value\nAttributeError: \'NoneType\' object has no attribute \'value\'\n'
p11
s.