(dp1
S'output'
p2
S"<type 'exceptions.AttributeError'> 'NoneType' object has no attribute 'groups'"
p3
sS'layer'
p4
S'/home/dell/Downloads/web2py/applications/practice1/views/default/quiz.html'
p5
sS'code'
p6
S"response.write(BEAUTIFY(session.topic))\nresponse.write('\\n', escape=False)\nresponse.write(var)"
p7
sS'snapshot'
p8
(dp9
sS'traceback'
p10
S'Traceback (most recent call last):\n  File "/home/dell/Downloads/web2py/gluon/restricted.py", line 217, in restricted\n    exec ccode in environment\n  File "/home/dell/Downloads/web2py/applications/practice1/views/default/quiz.html", line 3, in <module>\n  File "/home/dell/Downloads/web2py/gluon/globals.py", line 394, in write\n    self.body.write(xmlescape(data))\n  File "/home/dell/Downloads/web2py/gluon/html.py", line 120, in xmlescape\n    return data.xml()\n  File "/home/dell/Downloads/web2py/gluon/dal.py", line 11094, in xml\n    return sqlhtml.SQLTABLE(self).xml()\n  File "/home/dell/Downloads/web2py/gluon/sqlhtml.py", line 2929, in __init__\n    columns = [\'.\'.join(sqlrows.db._adapter.REGEX_TABLE_DOT_FIELD.match(c).groups()) for c in sqlrows.colnames]\nAttributeError: \'NoneType\' object has no attribute \'groups\'\n'
p11
s.