(dp1
S'output'
p2
S"<type 'exceptions.AttributeError'> 'Rows' object has no attribute 'question'"
p3
sS'layer'
p4
S'/home/dell/Downloads/web2py/applications/practice1/views/default/quiz.html'
p5
sS'code'
p6
S"response.write(BEAUTIFY(session.topic))\nresponse.write('\\n', escape=False)\nresponse.write(var.question)\nresponse.write('\\n', escape=False)"
p7
sS'snapshot'
p8
(dp9
sS'traceback'
p10
S'Traceback (most recent call last):\n  File "/home/dell/Downloads/web2py/gluon/restricted.py", line 217, in restricted\n    exec ccode in environment\n  File "/home/dell/Downloads/web2py/applications/practice1/views/default/quiz.html", line 3, in <module>\nAttributeError: \'Rows\' object has no attribute \'question\'\n'
p11
s.