(dp1
S'output'
p2
S"<type 'exceptions.AttributeError'> 'Row' object has no attribute 'Name'"
p3
sS'layer'
p4
S'/ug/ug2k13/cse/sharvil.katariya/Downloads/web2py/applications/project2/views/default/quiz.html'
p5
sS'code'
p6
S'response.write(\'<!DOCTYPE html PUBLIC "-//W3C//DTD XHTML 1.0 Transitional//EN" "http://www.w3.org/TR/xhtml1/DTD/xhtml1-transitional.dtd">\\n<html xmlns="http://www.w3.org/1999/xhtml">\\n <head>\\n  <title>\\n   \', escape=False)\nresponse.write(response.title or request.application)\nresponse.write(\'\\n  </title>\\n  \', escape=False)\nresponse.files.append(URL(request.application,\'static\',\'plugin_layouts/layouts/Customize/style.css\'))\nresponse.write(\'\\n  \', escape=False)\nresponse.files.append(URL(\'static\',\'plugin_layouts/superfish.js\'))\nresponse.write(\'\\n  \', escape=False)\nresponse.write(\'<script type="text/javascript"><!--\\n    // These variables are used by the web2py_ajax_init function in web2py_ajax.js (which is loaded below).\\n    var w2p_ajax_confirm_message = "\', escape=False)\nresponse.write(T(\'Are you sure you want to delete this object?\'))\nresponse.write(\'";\\n    var w2p_ajax_disable_with_message = "\', escape=False)\nresponse.write(T(\'Working...\'))\nresponse.write(\'";\\n    var w2p_ajax_date_format = "\', escape=False)\nresponse.write(T(\'%Y-%m-%d\'))\nresponse.write(\'";\\n    var w2p_ajax_datetime_format = "\', escape=False)\nresponse.write(T(\'%Y-%m-%d %H:%M:%S\'))\nresponse.write(\'";\\n    var ajax_error_500 = \\\'\', escape=False)\nresponse.write(T.M(\'An error occured, please [[reload %s]] the page\') % URL(args=request.args, vars=request.get_vars))\nresponse.write("\'\\n    //--></script>\\n", escape=False)\nresponse.files.insert(0,URL(\'static\',\'js/jquery.js\'))\nresponse.files.insert(1,URL(\'static\',\'css/calendar.css\'))\nresponse.files.insert(2,URL(\'static\',\'js/calendar.js\'))\nresponse.files.insert(3,URL(\'static\',\'js/web2py.js\'))\nresponse.include_meta()\nresponse.include_files()\nresponse.write(\'\\n\', escape=False)\nresponse.write(\'\\n  <style>\\nul.web2py-menu-vertical { width: 150px; position: relative; top:1em; left:1em;  z-index:30; border:0; margin:0; padding: 0; list-style: none; text-decoration: none;}\\nul.web2py-menu-vertical li { margin:0; padding:0; border:0; width: 150px; background: black; text-align:left;}\\nul.web2py-menu-vertical li a { margin:0; padding: 1px 3px 1px 3px; border:0; width: 144px; color: white; font-size:12px;}\\ndiv.flash { position: fixed; float: right; padding: 10px; top: 10px; right: 30px; opacity: 0.75; margin: 10px 10px 10px 10px; text-align: center; clear: both; color: #fff; font-size: 11pt; text-align: center; vertical-align: middle; cursor: pointer; background: black; border: 2px solid #fff; -moz-border-radius: 5px; -webkit-border-radius: 5px; z-index: 2; }\\ndiv.error { background-color: red; color: white; padding: 3px; }\\n.auth_navbar { text-align:right; z-index:20; position: absolute; top: 2px; right:30px; border:0; padding:0 }\\n  </style>\\n </head>\\n <body>\\n  <!-- start header -->\\n  \', escape=False)\ntry:\n    response.write(auth.navbar(action=URL(\'default\',\'user\')))\nexcept:pass\nresponse.write(\'\\n\\n  <div id="header">\\n   <div id="logo">\\n    <h1>\\n     \', escape=False)\nresponse.write(response.title or request.application)\nresponse.write(\'\\n    </h1>\\n    <p>\\n     Design by\\n     <a href="http://www.freecsstemplates.org/">\\n      Free CSS Templates\\n     </a>\\n    </p>\\n   </div>\\n   <!-- end #logo -->\\n   <div id="menu">\\n    \', escape=False)\nresponse.write(MENU(response.menu,_class=\'web2py-menu\'))\nresponse.write(\'\\n    <script>\\n      jQuery(document).ready(function(){jQuery(\\\'ul.web2py-menu\\\').superfish({delay:400});});\\n    </script>\\n   </div>\\n   <!-- end #menu -->\\n  </div>\\n  <!-- end #header -->\\n  <div id="page">\\n   <div id="content">\\n    <div class="flash">\', escape=False)\nresponse.write(response.flash or \'\')\nresponse.write(\'</div>\\n    \', escape=False)\nresponse.write(\'\\n<form enctype="multipart/form-data" action="\', escape=False)\nURL()\nresponse.write(\'" method="post">\\n\\t<select name=\\\'category_name\\\' \\n\\tonchange="jQuery(quiz_type).remove();\\n\\tajax(\\\'maker\\\', [\\\'category_name\\\'], \\\'shadow_clone\\\');">\\n\\t\', escape=False)\nfor category in categories:\n    response.write(\'\\n\\t<option value="\', escape=False)\n    response.write(category.id)\n    response.write(\'" \\n\\t\', escape=False)\n    response.write(" selected=\'selected\'" if str(category.id)==request.vars.category_name else "")\n    response.write(\'>\\n\\t\', escape=False)\n    response.write(category.Name)\n    response.write(\'\\n</option>\\n\', escape=False)\n    pass\nresponse.write("\\n</select>\\n\\n<span id=\'shadow_clone\'></span>\\n\\n<select name=\'quiz_type\' >\\n\\t", escape=False)\nfor maker in makers:\n    response.write(\'\\n\\t<option value="\', escape=False)\n    response.write(maker.id)\n    response.write(\'" \\n\\t\', escape=False)\n    response.write(XML(" selected=\'selected\'") if str(maker.name)==request.vars.quiz_type else "")\n    response.write(\'>\\n\\t\', escape=False)\n    response.write(maker.Name)\n    response.write(\'</option>\\n\\t\', escape=False)\n    pass\nresponse.write(\'\\n</select>\\n<input type="submit" value=\\\'Submit\\\'>  \\n</form>\\n\\n<hr>\\n\\n<div id="left_price">\\n\\t\\n\\t<table class="pricetable">\\n\\t\\t<tr>\\n\\t\\t\\t<th class="priceleft">Part Number</th>\\n\\t\\t\\t<th class="priceright">List ($)</th>\\n\\t\\t\\t<th class="priceright">Special ($)</th>\\n\\t\\t</tr>\\n\\t</table>\\n\\n\\t<div id="table_price">\\n\\t\\t<table  class="pricetable">\\n\\t\\t\\t\', escape=False)\nfor list in lists:\n    response.write(\'\\n\\t\\t\\t<tr>\\n\\t\\t\\t\\t<td class="priceleft">\', escape=False)\n    response.write(list.name)\n    response.write(\'</td>\\n\\t\\t\\t\\t<td class="priceright">\', escape=False)\n    response.write(list.category)\n    response.write(\'</td>\\n\\t\\t\\t</tr>\\n\\t\\t\\t\', escape=False)\n    pass\nresponse.write(\'\\n\\t\\t</table>\\n\\t</div>\\n\\n</div>\\n\\n<div id="right_price">\\n\\n</div>\', escape=False)\nresponse.write(\'\\n   </div>\\n   <!-- end #content -->\\n   <div id="sidebar">\\n    <div id="sidebar-bgtop">\\n    </div>\\n    <div id="sidebar-content">\\n     <ul>\\n      <li id="search">\\n       <h2>\\n        Search\\n       </h2>\\n       <form method="get" action="">\\n        <fieldset>\\n         <input type="text" id="s" name="s" value="" />\\n         <input type="submit" id="x" value="Search" />\\n        </fieldset>\\n       </form>\\n      </li>\\n      <li>\\n       <h2>\\n        Lorem Ipsum\\n       </h2>\\n       <ul>\\n        <li>\\n         <a href="#">\\n          Fusce dui neque fringilla\\n         </a>\\n        </li>\\n        <li>\\n         <a href="#">\\n          Eget tempor eget nonummy\\n         </a>\\n        </li>\\n        <li>\\n         <a href="#">\\n          Magna lacus bibendum mauris\\n         </a>\\n        </li>\\n        <li>\\n         <a href="#">\\n          Nec metus sed donec\\n         </a>\\n        </li>\\n        <li>\\n         <a href="#">\\n          Magna lacus bibendum mauris\\n         </a>\\n        </li>\\n        <li>\\n         <a href="#">\\n          Velit semper nisi molestie\\n         </a>\\n        </li>\\n        <li>\\n         <a href="#">\\n          Eget tempor eget nonummy\\n         </a>\\n        </li>\\n       </ul>\\n      </li>\\n      <li>\\n       <h2>\\n        Volutpat Dolore\\n       </h2>\\n       <ul>\\n        <li>\\n         <a href="#">\\n          Nec metus sed donec\\n         </a>\\n        </li>\\n        <li>\\n         <a href="#">\\n          Magna lacus bibendum mauris\\n         </a>\\n        </li>\\n        <li>\\n         <a href="#">\\n          Velit semper nisi molestie\\n         </a>\\n        </li>\\n        <li>\\n         <a href="#">\\n          Eget tempor eget nonummy\\n         </a>\\n        </li>\\n        <li>\\n         <a href="#">\\n          Nec metus sed donec\\n         </a>\\n        </li>\\n        <li>\\n         <a href="#">\\n          Magna lacus bibendum mauris\\n         </a>\\n        </li>\\n        <li>\\n         <a href="#">\\n          Velit semper nisi molestie\\n         </a>\\n        </li>\\n       </ul>\\n      </li>\\n     </ul>\\n    </div>\\n    <div id="sidebar-bgbtm">\\n    </div>\\n   </div>\\n   <!-- end #sidebar -->\\n  </div>\\n  <!-- end #page -->\\n  <div id="footer">\\n   <p>\\n    &copy; 2008. All Rights Reserved. Design by\\n    <a href="http://www.freecsstemplates.org/">\\n     Free CSS Templates\\n    </a>\\n    .\\n   </p>\\n  </div>\\n  <!-- end #footer -->\\n </body>\\n</html>\\n\', escape=False)'
p7
sS'snapshot'
p8
(dp9
S'exception'
p10
(dp11
S'__hash__'
p12
S"<method-wrapper '__hash__' of exceptions.AttributeError object>"
p13
sS'__setattr__'
p14
S"<method-wrapper '__setattr__' of exceptions.AttributeError object>"
p15
sS'__reduce_ex__'
p16
S'<built-in method __reduce_ex__ of exceptions.AttributeError object>'
p17
sS'__getslice__'
p18
S"<method-wrapper '__getslice__' of exceptions.AttributeError object>"
p19
sS'__getitem__'
p20
S"<method-wrapper '__getitem__' of exceptions.AttributeError object>"
p21
sS'__setstate__'
p22
S'<built-in method __setstate__ of exceptions.AttributeError object>'
p23
sS'__reduce__'
p24
S'<built-in method __reduce__ of exceptions.AttributeError object>'
p25
sS'__str__'
p26
S"<method-wrapper '__str__' of exceptions.AttributeError object>"
p27
sS'__format__'
p28
S'<built-in method __format__ of exceptions.AttributeError object>'
p29
sS'__getattribute__'
p30
S"<method-wrapper '__getattribute__' of exceptions.AttributeError object>"
p31
sS'__class__'
p32
S"<type 'exceptions.AttributeError'>"
p33
sS'__unicode__'
p34
S'<built-in method __unicode__ of exceptions.AttributeError object>'
p35
sS'__delattr__'
p36
S"<method-wrapper '__delattr__' of exceptions.AttributeError object>"
p37
sS'__subclasshook__'
p38
S'<built-in method __subclasshook__ of type object>'
p39
sS'__repr__'
p40
S"<method-wrapper '__repr__' of exceptions.AttributeError object>"
p41
sS'args'
p42
S'("\'Row\' object has no attribute \'Name\'",)'
p43
sS'__dict__'
p44
S'{}'
p45
sS'__sizeof__'
p46
S'<built-in method __sizeof__ of exceptions.AttributeError object>'
p47
sS'__doc__'
p48
S"'Attribute not found.'"
p49
sS'__init__'
p50
S"<method-wrapper '__init__' of exceptions.AttributeError object>"
p51
sS'__new__'
p52
S'<built-in method __new__ of type object>'
p53
ssS'evalue'
p54
S"'Row' object has no attribute 'Name'"
p55
sS'request'
p56
cgluon.html
XML_unpickle
p57
(S's\x19a\x00\x00<div><table><tr><td style="font-weight:bold;vertical-align:top;">ajax</td><td style="vertical-align:top;">:</td><td><div>False</div></td></tr><tr><td style="font-weight:bold;vertical-align:top;">application</td><td style="vertical-align:top;">:</td><td><div>project2</div></td></tr><tr><td style="font-weight:bold;vertical-align:top;">args</td><td style="vertical-align:top;">:</td><td><div><table></table></div></td></tr><tr><td style="font-weight:bold;vertical-align:top;">cid</td><td style="vertical-align:top;">:</td><td><div>None</div></td></tr><tr><td style="font-weight:bold;vertical-align:top;">client</td><td style="vertical-align:top;">:</td><td><div>127.0.0.1</div></td></tr><tr><td style="font-weight:bold;vertical-align:top;">controller</td><td style="vertical-align:top;">:</td><td><div>default</div></td></tr><tr><td style="font-weight:bold;vertical-align:top;">cookies</td><td style="vertical-align:top;">:</td><td><div><table><tr><td style="font-weight:bold;vertical-align:top;">session_id_admin</td><td style="vertical-align:top;">:</td><td><div>127.0.0.1-13e5e1d0-30f7-4702-894b-3aa0635093a6<table><tr><td style="font-weight:bold;vertical-align:top;">comment</td><td style="vertical-align:top;">:</td><td><div></div></td></tr><tr><td style="font-weight:bold;vertical-align:top;">domain</td><td style="vertical-align:top;">:</td><td><div></div></td></tr><tr><td style="font-weight:bold;vertical-align:top;">expires</td><td style="vertical-align:top;">:</td><td><div></div></td></tr><tr><td style="font-weight:bold;vertical-align:top;">httponly</td><td style="vertical-align:top;">:</td><td><div></div></td></tr><tr><td style="font-weight:bold;vertical-align:top;">max-age</td><td style="vertical-align:top;">:</td><td><div></div></td></tr><tr><td style="font-weight:bold;vertical-align:top;">path</td><td style="vertical-align:top;">:</td><td><div></div></td></tr><tr><td style="font-weight:bold;vertical-align:top;">secure</td><td style="vertical-align:top;">:</td><td><div></div></td></tr><tr><td style="font-weight:bold;vertical-align:top;">version</td><td style="vertical-align:top;">:</td><td><div></div></td></tr></table></div></td></tr><tr><td style="font-weight:bold;vertical-align:top;">session_id_ajaxdrop</td><td style="vertical-align:top;">:</td><td><div>127.0.0.1-96799889-f847-49c5-a716-e7c4dc015bd6<table><tr><td style="font-weight:bold;vertical-align:top;">comment</td><td style="vertical-align:top;">:</td><td><div></div></td></tr><tr><td style="font-weight:bold;vertical-align:top;">domain</td><td style="vertical-align:top;">:</td><td><div></div></td></tr><tr><td style="font-weight:bold;vertical-align:top;">expires</td><td style="vertical-align:top;">:</td><td><div></div></td></tr><tr><td style="font-weight:bold;vertical-align:top;">httponly</td><td style="vertical-align:top;">:</td><td><div></div></td></tr><tr><td style="font-weight:bold;vertical-align:top;">max-age</td><td style="vertical-align:top;">:</td><td><div></div></td></tr><tr><td style="font-weight:bold;vertical-align:top;">path</td><td style="vertical-align:top;">:</td><td><div></div></td></tr><tr><td style="font-weight:bold;vertical-align:top;">secure</td><td style="vertical-align:top;">:</td><td><div></div></td></tr><tr><td style="font-weight:bold;vertical-align:top;">version</td><td style="vertical-align:top;">:</td><td><div></div></td></tr></table></div></td></tr><tr><td style="font-weight:bold;vertical-align:top;">session_id_project2</td><td style="vertical-align:top;">:</td><td><div>127.0.0.1-f12f45a3-cd58-4dfc-8ba9-31b9b13263fd<table><tr><td style="font-weight:bold;vertical-align:top;">comment</td><td style="vertical-align:top;">:</td><td><div></div></td></tr><tr><td style="font-weight:bold;vertical-align:top;">domain</td><td style="vertical-align:top;">:</td><td><div></div></td></tr><tr><td style="font-weight:bold;vertical-align:top;">expires</td><td style="vertical-align:top;">:</td><td><div></div></td></tr><tr><td style="font-weight:bold;vertical-align:top;">httponly</td><td style="vertical-align:top;">:</td><td><div></div></td></tr><tr><td style="font-weight:bold;vertical-align:top;">max-age</td><td style="vertical-align:top;">:</td><td><div></div></td></tr><tr><td style="font-weight:bold;vertical-align:top;">path</td><td style="vertical-align:top;">:</td><td><div></div></td></tr><tr><td style="font-weight:bold;vertical-align:top;">secure</td><td style="vertical-align:top;">:</td><td><div></div></td></tr><tr><td style="font-weight:bold;vertical-align:top;">version</td><td style="vertical-align:top;">:</td><td><div></div></td></tr></table></div></td></tr><tr><td style="font-weight:bold;vertical-align:top;">session_id_welcome</td><td style="vertical-align:top;">:</td><td><div>127.0.0.1-f8aeba72-0e54-417c-9e43-ad3041c069ef<table><tr><td style="font-weight:bold;vertical-align:top;">comment</td><td style="vertical-align:top;">:</td><td><div></div></td></tr><tr><td style="font-weight:bold;vertical-align:top;">domain</td><td style="vertical-align:top;">:</td><td><div></div></td></tr><tr><td style="font-weight:bold;vertical-align:top;">expires</td><td style="vertical-align:top;">:</td><td><div></div></td></tr><tr><td style="font-weight:bold;vertical-align:top;">httponly</td><td style="vertical-align:top;">:</td><td><div></div></td></tr><tr><td style="font-weight:bold;vertical-align:top;">max-age</td><td style="vertical-align:top;">:</td><td><div></div></td></tr><tr><td style="font-weight:bold;vertical-align:top;">path</td><td style="vertical-align:top;">:</td><td><div></div></td></tr><tr><td style="font-weight:bold;vertical-align:top;">secure</td><td style="vertical-align:top;">:</td><td><div></div></td></tr><tr><td style="font-weight:bold;vertical-align:top;">version</td><td style="vertical-align:top;">:</td><td><div></div></td></tr></table></div></td></tr></table></div></td></tr><tr><td style="font-weight:bold;vertical-align:top;">env</td><td style="vertical-align:top;">:</td><td><div><table><tr><td style="font-weight:bold;vertical-align:top;">HTTP_ACCEPT</td><td style="vertical-align:top;">:</td><td><div>text/html,application/xhtml+xml,application/xml;q=0.9,*/*;q=0.8</div></td></tr><tr><td style="font-weight:bold;vertical-align:top;">HTTP_ACCEPT_ENCODING</td><td style="vertical-align:top;">:</td><td><div>gzip, deflate</div></td></tr><tr><td style="font-weight:bold;vertical-align:top;">HTTP_ACCEPT_LANGUAGE</td><td style="vertical-align:top;">:</td><td><div>en-US,en;q=0.5</div></td></tr><tr><td style="font-weight:bold;vertical-align:top;">HTTP_CACHE_CONTROL</td><td style="vertical-align:top;">:</td><td><div>max-age=0</div></td></tr><tr><td style="font-weight:bold;vertical-align:top;">HTTP_CONNECTION</td><td style="vertical-align:top;">:</td><td><div>keep-alive</div></td></tr><tr><td style="font-weight:bold;vertical-align:top;">HTTP_COOKIE</td><td style="vertical-align:top;">:</td><td><div>session_id_welcome=127.0.0.1-f8aeba72-0e54-417c-9e43-ad3041c069ef; session_id_admin=127.0.0.1-13e5e1d0-30f7-4702-894b-3aa0635093a6; session_id_ajaxdrop=127.0.0.1-96799889-f847-49c5-a716-e7c4dc015bd6; session_id_project2=127.0.0.1-f12f45a3-cd58-4dfc-8ba9-31b9b13263fd</div></td></tr><tr><td style="font-weight:bold;vertical-align:top;">HTTP_DNT</td><td style="vertical-align:top;">:</td><td><div>1</div></td></tr><tr><td style="font-weight:bold;vertical-align:top;">HTTP_HOST</td><td style="vertical-align:top;">:</td><td><div>127.0.0.1:8000</div></td></tr><tr><td style="font-weight:bold;vertical-align:top;">HTTP_USER_AGENT</td><td style="vertical-align:top;">:</td><td><div>Mozilla/5.0 (X11; Linux i686; rv:28.0) Gecko/20100101 Firefox/28.0</div></td></tr><tr><td style="font-weight:bold;vertical-align:top;">PATH_INFO</td><td style="vertical-align:top;">:</td><td><div>/project2/default/quiz</div></td></tr><tr><td style="font-weight:bold;vertical-align:top;">QUERY_STRING</td><td style="vertical-align:top;">:</td><td><div></div></td></tr><tr><td style="font-weight:bold;vertical-align:top;">REMOTE_ADDR</td><td style="vertical-align:top;">:</td><td><div>127.0.0.1</div></td></tr><tr><td style="font-weight:bold;vertical-align:top;">REMOTE_PORT</td><td style="vertical-align:top;">:</td><td><div>35407</div></td></tr><tr><td style="font-weight:bold;vertical-align:top;">REQUEST_METHOD</td><td style="vertical-align:top;">:</td><td><div>GET</div></td></tr><tr><td style="font-weight:bold;vertical-align:top;">SCRIPT_NAME</td><td style="vertical-align:top;">:</td><td><div></div></td></tr><tr><td style="font-weight:bold;vertical-align:top;">SERVER_NAME</td><td style="vertical-align:top;">:</td><td><div>cr13063</div></td></tr><tr><td style="font-weight:bold;vertical-align:top;">SERVER_PORT</td><td style="vertical-align:top;">:</td><td><div>8000</div></td></tr><tr><td style="font-weight:bold;vertical-align:top;">SERVER_PROTOCOL</td><td style="vertical-align:top;">:</td><td><div>HTTP/1.1</div></td></tr><tr><td style="font-weight:bold;vertical-align:top;">SERVER_SOFTWARE</td><td style="vertical-align:top;">:</td><td><div>Rocket 1.2.6</div></td></tr><tr><td style="font-weight:bold;vertical-align:top;">app_folders</td><td style="vertical-align:top;">:</td><td><div>set([&#x27;/ug/ug2k13/cse/sharvil.katariya/Downloads/web2py/applications/ajaxdrop/&#x27;, &#x27;/ug/ug2k13/cse/sharvil.katariya/Downloads/web2py/applications/admin/&#x27;, &#x27;/ug/ug2k13/cse/sharvil.katariya/Downloads/web2py/applications/project2/&#x27;])</div></td></tr><tr><td style="font-weight:bold;vertical-align:top;">applications_parent</td><td style="vertical-align:top;">:</td><td><div>/ug/ug2k13/cse/sharvil.katariya/Downloads/web2py</div></td></tr><tr><td style="font-weight:bold;vertical-align:top;">cmd_args</td><td style="vertical-align:top;">:</td><td><div><table></table></div></td></tr><tr><td style="font-weight:bold;vertical-align:top;">cmd_options</td><td style="vertical-align:top;">:</td><td><div>&lt;Values at 0x979ed2c: {&#x27;verbose&#x27;: False, &#x27;ip&#x27;: &#x27;127.0.0.1&#x27;, &#x27;debuglevel&#x27;: 30, &#x27;with_scheduler&#x27;: False, &#x27;ips&#x27;: [&#x27;::1&#x27;], &#x27;shutdown_timeout&#x27;: 5, &#x27;taskbar&#x27;: False, &#x27;with_coverage&#x27;: False, &#x27;port&#x27;: 8000, &#x27;maxthreads&#x27;: None, &#x27;softcron&#x27;: False, &#x27;server_name&#x27;: &#x27;cr13063&#x27;, &#x27;bpython&#x27;: False, &#x27;nogui&#x27;: False, &#x27;pid_filename&#x27;: &#x27;httpserver.pid&#x27;, &#x27;extcron&#x27;: False, &#x27;runcron&#x27;: False, &#x27;run_system_tests&#x27;: False, &#x27;test&#x27;: None, &#x27;folder&#x27;: &#x27;/ug/ug2k13/cse/sharvil.katariya/Downloads/web2py&#x27;, &#x27;config&#x27;: &#x27;&#x27;, &#x27;minthreads&#x27;: None, &#x27;shell&#x27;: None, &#x27;run&#x27;: &#x27;&#x27;, &#x27;log_filename&#x27;: &#x27;httpserver.log&#x27;, &#x27;profiler_dir&#x27;: None, &#x27;args&#x27;: [&#x27;&#x27;], &#x27;socket_timeout&#x27;: 5, &#x27;ssl_ca_certificate&#x27;: None, &#x27;scheduler&#x27;: None, &#x27;interfaces&#x27;: None, &#x27;ssl_private_key&#x27;: &#x27;&#x27;, &#x27;scheduler_groups&#x27;: None, &#x27;password&#x27;: &#x27;123&#x27;, &#x27;request_queue_size&#x27;: 5, &#x27;ssl_certificate&#x27;: &#x27;&#x27;, &#x27;cronjob&#x27;: False, &#x27;numthreads&#x27;: None, &#x27;quiet&#x27;: False, &#x27;import_models&#x27;: False, &#x27;timeout&#x27;: 10, &#x27;plain&#x27;: False, &#x27;nobanner&#x27;: False}&gt;</div></td></tr><tr><td style="font-weight:bold;vertical-align:top;">db_sessions</td><td style="vertical-align:top;">:</td><td><div>set([])</div></td></tr><tr><td style="font-weight:bold;vertical-align:top;">debugging</td><td style="vertical-align:top;">:</td><td><div>False</div></td></tr><tr><td style="font-weight:bold;vertical-align:top;">gluon_parent</td><td style="vertical-align:top;">:</td><td><div>/ug/ug2k13/cse/sharvil.katariya/Downloads/web2py</div></td></tr><tr><td style="font-weight:bold;vertical-align:top;">http_accept</td><td style="vertical-align:top;">:</td><td><div>text/html,application/xhtml+xml,application/xml;q=0.9,*/*;q=0.8</div></td></tr><tr><td style="font-weight:bold;vertical-align:top;">http_accept_encoding</td><td style="vertical-align:top;">:</td><td><div>gzip, deflate</div></td></tr><tr><td style="font-weight:bold;vertical-align:top;">http_accept_language</td><td style="vertical-align:top;">:</td><td><div>en-US,en;q=0.5</div></td></tr><tr><td style="font-weight:bold;vertical-align:top;">http_cache_control</td><td style="vertical-align:top;">:</td><td><div>max-age=0</div></td></tr><tr><td style="font-weight:bold;vertical-align:top;">http_connection</td><td style="vertical-align:top;">:</td><td><div>keep-alive</div></td></tr><tr><td style="font-weight:bold;vertical-align:top;">http_cookie</td><td style="vertical-align:top;">:</td><td><div>session_id_welcome=127.0.0.1-f8aeba72-0e54-417c-9e43-ad3041c069ef; session_id_admin=127.0.0.1-13e5e1d0-30f7-4702-894b-3aa0635093a6; session_id_ajaxdrop=127.0.0.1-96799889-f847-49c5-a716-e7c4dc015bd6; session_id_project2=127.0.0.1-f12f45a3-cd58-4dfc-8ba9-31b9b13263fd</div></td></tr><tr><td style="font-weight:bold;vertical-align:top;">http_dnt</td><td style="vertical-align:top;">:</td><td><div>1</div></td></tr><tr><td style="font-weight:bold;vertical-align:top;">http_host</td><td style="vertical-align:top;">:</td><td><div>127.0.0.1:8000</div></td></tr><tr><td style="font-weight:bold;vertical-align:top;">http_user_agent</td><td style="vertical-align:top;">:</td><td><div>Mozilla/5.0 (X11; Linux i686; rv:28.0) Gecko/20100101 Firefox/28.0</div></td></tr><tr><td style="font-weight:bold;vertical-align:top;">is_jython</td><td style="vertical-align:top;">:</td><td><div>False</div></td></tr><tr><td style="font-weight:bold;vertical-align:top;">is_pypy</td><td style="vertical-align:top;">:</td><td><div>False</div></td></tr><tr><td style="font-weight:bold;vertical-align:top;">is_source</td><td style="vertical-align:top;">:</td><td><div>True</div></td></tr><tr><td style="font-weight:bold;vertical-align:top;">local_hosts</td><td style="vertical-align:top;">:</td><td><div><table><tr><td><div>::ffff:127.0.0.1</div></td></tr><tr><td><div>::1</div></td></tr><tr><td><div>cr13063</div></td></tr><tr><td><div>localhost6.localdomain6</div></td></tr><tr><td><div>10.3.10.170</div></td></tr><tr><td><div>127.0.0.1</div></td></tr></table></div></td></tr><tr><td style="font-weight:bold;vertical-align:top;">path_info</td><td style="vertical-align:top;">:</td><td><div>/project2/default/quiz</div></td></tr><tr><td style="font-weight:bold;vertical-align:top;">query_string</td><td style="vertical-align:top;">:</td><td><div></div></td></tr><tr><td style="font-weight:bold;vertical-align:top;">remote_addr</td><td style="vertical-align:top;">:</td><td><div>127.0.0.1</div></td></tr><tr><td style="font-weight:bold;vertical-align:top;">remote_port</td><td style="vertical-align:top;">:</td><td><div>35407</div></td></tr><tr><td style="font-weight:bold;vertical-align:top;">request_method</td><td style="vertical-align:top;">:</td><td><div>GET</div></td></tr><tr><td style="font-weight:bold;vertical-align:top;">request_uri</td><td style="vertical-align:top;">:</td><td><div>/project2/default/quiz</div></td></tr><tr><td style="font-weight:bold;vertical-align:top;">script_name</td><td style="vertical-align:top;">:</td><td><div></div></td></tr><tr><td style="font-weight:bold;vertical-align:top;">server_name</td><td style="vertical-align:top;">:</td><td><div>cr13063</div></td></tr><tr><td style="font-weight:bold;vertical-align:top;">server_port</td><td style="vertical-align:top;">:</td><td><div>8000</div></td></tr><tr><td style="font-weight:bold;vertical-align:top;">server_protocol</td><td style="vertical-align:top;">:</td><td><div>HTTP/1.1</div></td></tr><tr><td style="font-weight:bold;vertical-align:top;">server_software</td><td style="vertical-align:top;">:</td><td><div>Rocket 1.2.6</div></td></tr><tr><td style="font-weight:bold;vertical-align:top;">web2py_path</td><td style="vertical-align:top;">:</td><td><div>/ug/ug2k13/cse/sharvil.katariya/Downloads/web2py</div></td></tr><tr><td style="font-weight:bold;vertical-align:top;">web2py_version</td><td style="vertical-align:top;">:</td><td><div>2.9.4-stable+timestamp.2014.03.05.04.44.09</div></td></tr><tr><td style="font-weight:bold;vertical-align:top;">wsgi.errors</td><td style="vertical-align:top;">:</td><td><div>&lt;open file &#x27;&lt;stderr&gt;&#x27;, mode &#x27;w&#x27; at 0xb78aa0d0&gt;</div></td></tr><tr><td style="font-weight:bold;vertical-align:top;">wsgi.file_wrapper</td><td style="vertical-align:top;">:</td><td><div>&lt;class wsgiref.util.FileWrapper at 0x9761e9c&gt;</div></td></tr><tr><td style="font-weight:bold;vertical-align:top;">wsgi.input</td><td style="vertical-align:top;">:</td><td><div>&lt;socket._fileobject object at 0xb0c5d0ac&gt;</div></td></tr><tr><td style="font-weight:bold;vertical-align:top;">wsgi.multiprocess</td><td style="vertical-align:top;">:</td><td><div>False</div></td></tr><tr><td style="font-weight:bold;vertical-align:top;">wsgi.multithread</td><td style="vertical-align:top;">:</td><td><div>True</div></td></tr><tr><td style="font-weight:bold;vertical-align:top;">wsgi.run_once</td><td style="vertical-align:top;">:</td><td><div>False</div></td></tr><tr><td style="font-weight:bold;vertical-align:top;">wsgi.url_scheme</td><td style="vertical-align:top;">:</td><td><div>http</div></td></tr><tr><td style="font-weight:bold;vertical-align:top;">wsgi.version</td><td style="vertical-align:top;">:</td><td><div><table><tr><td><div>1</div></td></tr><tr><td><div>0</div></td></tr></table></div></td></tr><tr><td style="font-weight:bold;vertical-align:top;">wsgi_errors</td><td style="vertical-align:top;">:</td><td><div>&lt;open file &#x27;&lt;stderr&gt;&#x27;, mode &#x27;w&#x27; at 0xb78aa0d0&gt;</div></td></tr><tr><td style="font-weight:bold;vertical-align:top;">wsgi_file_wrapper</td><td style="vertical-align:top;">:</td><td><div>&lt;class wsgiref.util.FileWrapper at 0x9761e9c&gt;</div></td></tr><tr><td style="font-weight:bold;vertical-align:top;">wsgi_input</td><td style="vertical-align:top;">:</td><td><div>&lt;socket._fileobject object at 0xb0c5d0ac&gt;</div></td></tr><tr><td style="font-weight:bold;vertical-align:top;">wsgi_multiprocess</td><td style="vertical-align:top;">:</td><td><div>False</div></td></tr><tr><td style="font-weight:bold;vertical-align:top;">wsgi_multithread</td><td style="vertical-align:top;">:</td><td><div>True</div></td></tr><tr><td style="font-weight:bold;vertical-align:top;">wsgi_run_once</td><td style="vertical-align:top;">:</td><td><div>False</div></td></tr><tr><td style="font-weight:bold;vertical-align:top;">wsgi_url_scheme</td><td style="vertical-align:top;">:</td><td><div>http</div></td></tr><tr><td style="font-weight:bold;vertical-align:top;">wsgi_version</td><td style="vertical-align:top;">:</td><td><div><table><tr><td><div>1</div></td></tr><tr><td><div>0</div></td></tr></table></div></td></tr></table></div></td></tr><tr><td style="font-weight:bold;vertical-align:top;">extension</td><td style="vertical-align:top;">:</td><td><div>html</div></td></tr><tr><td style="font-weight:bold;vertical-align:top;">folder</td><td style="vertical-align:top;">:</td><td><div>/ug/ug2k13/cse/sharvil.katariya/Downloads/web2py/applications/project2/</div></td></tr><tr><td style="font-weight:bold;vertical-align:top;">function</td><td style="vertical-align:top;">:</td><td><div>quiz</div></td></tr><tr><td style="font-weight:bold;vertical-align:top;">global_settings</td><td style="vertical-align:top;">:</td><td><div><table><tr><td style="font-weight:bold;vertical-align:top;">app_folders</td><td style="vertical-align:top;">:</td><td><div>set([&#x27;/ug/ug2k13/cse/sharvil.katariya/Downloads/web2py/applications/ajaxdrop/&#x27;, &#x27;/ug/ug2k13/cse/sharvil.katariya/Downloads/web2py/applications/admin/&#x27;, &#x27;/ug/ug2k13/cse/sharvil.katariya/Downloads/web2py/applications/project2/&#x27;])</div></td></tr><tr><td style="font-weight:bold;vertical-align:top;">applications_parent</td><td style="vertical-align:top;">:</td><td><div>/ug/ug2k13/cse/sharvil.katariya/Downloads/web2py</div></td></tr><tr><td style="font-weight:bold;vertical-align:top;">cmd_args</td><td style="vertical-align:top;">:</td><td><div><table></table></div></td></tr><tr><td style="font-weight:bold;vertical-align:top;">cmd_options</td><td style="vertical-align:top;">:</td><td><div>&lt;Values at 0x979ed2c: {&#x27;verbose&#x27;: False, &#x27;ip&#x27;: &#x27;127.0.0.1&#x27;, &#x27;debuglevel&#x27;: 30, &#x27;with_scheduler&#x27;: False, &#x27;ips&#x27;: [&#x27;::1&#x27;], &#x27;shutdown_timeout&#x27;: 5, &#x27;taskbar&#x27;: False, &#x27;with_coverage&#x27;: False, &#x27;port&#x27;: 8000, &#x27;maxthreads&#x27;: None, &#x27;softcron&#x27;: False, &#x27;server_name&#x27;: &#x27;cr13063&#x27;, &#x27;bpython&#x27;: False, &#x27;nogui&#x27;: False, &#x27;pid_filename&#x27;: &#x27;httpserver.pid&#x27;, &#x27;extcron&#x27;: False, &#x27;runcron&#x27;: False, &#x27;run_system_tests&#x27;: False, &#x27;test&#x27;: None, &#x27;folder&#x27;: &#x27;/ug/ug2k13/cse/sharvil.katariya/Downloads/web2py&#x27;, &#x27;config&#x27;: &#x27;&#x27;, &#x27;minthreads&#x27;: None, &#x27;shell&#x27;: None, &#x27;run&#x27;: &#x27;&#x27;, &#x27;log_filename&#x27;: &#x27;httpserver.log&#x27;, &#x27;profiler_dir&#x27;: None, &#x27;args&#x27;: [&#x27;&#x27;], &#x27;socket_timeout&#x27;: 5, &#x27;ssl_ca_certificate&#x27;: None, &#x27;scheduler&#x27;: None, &#x27;interfaces&#x27;: None, &#x27;ssl_private_key&#x27;: &#x27;&#x27;, &#x27;scheduler_groups&#x27;: None, &#x27;password&#x27;: &#x27;123&#x27;, &#x27;request_queue_size&#x27;: 5, &#x27;ssl_certificate&#x27;: &#x27;&#x27;, &#x27;cronjob&#x27;: False, &#x27;numthreads&#x27;: None, &#x27;quiet&#x27;: False, &#x27;import_models&#x27;: False, &#x27;timeout&#x27;: 10, &#x27;plain&#x27;: False, &#x27;nobanner&#x27;: False}&gt;</div></td></tr><tr><td style="font-weight:bold;vertical-align:top;">db_sessions</td><td style="vertical-align:top;">:</td><td><div>set([])</div></td></tr><tr><td style="font-weight:bold;vertical-align:top;">debugging</td><td style="vertical-align:top;">:</td><td><div>False</div></td></tr><tr><td style="font-weight:bold;vertical-align:top;">gluon_parent</td><td style="vertical-align:top;">:</td><td><div>/ug/ug2k13/cse/sharvil.katariya/Downloads/web2py</div></td></tr><tr><td style="font-weight:bold;vertical-align:top;">is_jython</td><td style="vertical-align:top;">:</td><td><div>False</div></td></tr><tr><td style="font-weight:bold;vertical-align:top;">is_pypy</td><td style="vertical-align:top;">:</td><td><div>False</div></td></tr><tr><td style="font-weight:bold;vertical-align:top;">is_source</td><td style="vertical-align:top;">:</td><td><div>True</div></td></tr><tr><td style="font-weight:bold;vertical-align:top;">local_hosts</td><td style="vertical-align:top;">:</td><td><div><table><tr><td><div>::ffff:127.0.0.1</div></td></tr><tr><td><div>::1</div></td></tr><tr><td><div>cr13063</div></td></tr><tr><td><div>localhost6.localdomain6</div></td></tr><tr><td><div>10.3.10.170</div></td></tr><tr><td><div>127.0.0.1</div></td></tr></table></div></td></tr><tr><td style="font-weight:bold;vertical-align:top;">web2py_version</td><td style="vertical-align:top;">:</td><td><div>2.9.4-stable+timestamp.2014.03.05.04.44.09</div></td></tr></table></div></td></tr><tr><td style="font-weight:bold;vertical-align:top;">is_https</td><td style="vertical-align:top;">:</td><td><div>False</div></td></tr><tr><td style="font-weight:bold;vertical-align:top;">is_local</td><td style="vertical-align:top;">:</td><td><div>True</div></td></tr><tr><td style="font-weight:bold;vertical-align:top;">is_restful</td><td style="vertical-align:top;">:</td><td><div>False</div></td></tr><tr><td style="font-weight:bold;vertical-align:top;">now</td><td style="vertical-align:top;">:</td><td><div>datetime.datetime(2014, 4, 11, 15, 39, 5, 551601)</div></td></tr><tr><td style="font-weight:bold;vertical-align:top;">raw_args</td><td style="vertical-align:top;">:</td><td><div></div></td></tr><tr><td style="font-weight:bold;vertical-align:top;">raw_extension</td><td style="vertical-align:top;">:</td><td><div>None</div></td></tr><tr><td style="font-weight:bold;vertical-align:top;">url</td><td style="vertical-align:top;">:</td><td><div>/project2/default/quiz</div></td></tr><tr><td style="font-weight:bold;vertical-align:top;">utcnow</td><td style="vertical-align:top;">:</td><td><div>datetime.datetime(2014, 4, 11, 10, 9, 5, 551639)</div></td></tr><tr><td style="font-weight:bold;vertical-align:top;">uuid</td><td style="vertical-align:top;">:</td><td><div>project2/127.0.0.1.2014-04-11.15-39-05.e71e008c-a47d-4afe-8581-94bf59b388f2</div></td></tr><tr><td style="font-weight:bold;vertical-align:top;">wsgi</td><td style="vertical-align:top;">:</td><td><div>&lt;gluon.main.LazyWSGI object at 0xb03299cc&gt;</div></td></tr></table></div>'
tRp58
sS'frames'
p59
(lp60
(dp61
S'file'
p62
S'/ug/ug2k13/cse/sharvil.katariya/Downloads/web2py/gluon/restricted.py'
p63
sS'dump'
p64
(dp65
S'environment'
p66
S"{'A': <class 'gluon.html.A'>, 'ANY_OF': <class 'gluon.validators.ANY_OF'>, 'Auth': <class 'gluon.tools.Auth'>, 'B': <class 'gluon.html.B'>, 'BEAUTIFY': <class 'gluon.html.BEAUTIFY'>, 'BODY': <class 'gluon.html.BODY'>, 'BR': <class 'gluon.html.BR'>, 'BUTTON': <class 'gluon.html.BUTTON'>, 'CAT': <class 'gluon.html.CAT'>, 'CENTER': <class 'gluon.html.CENTER'>, ...}"
p67
sS'ccode'
p68
S'<code object <module> at 0xb0436a40, file "/ug/u...ations/project2/views/default/quiz.html", line 1>'
p69
ssS'lnum'
p70
I217
sS'lines'
p71
(dp72
I212
S'    try:'
p73
sI213
S'        if isinstance(code, types.CodeType):'
p74
sI214
S'            ccode = code'
p75
sI215
S'        else:'
p76
sI216
S'            ccode = compile2(code, layer)'
p77
sI217
S'        exec ccode in environment'
p78
sI218
S'    except HTTP:'
p79
sI219
S'        raise'
p80
sI220
S'    except RestrictedError:'
p81
sI221
S'        # do not encapsulate (obfuscate) the original RestrictedError'
p82
ssS'call'
p83
S'(code=\'response.write(\\\'<!DOCTYPE html PUBLIC "-//W3C//D... #footer -->\\\\n </body>\\\\n</html>\\\\n\\\', escape=False)\', environment={\'A\': <class \'gluon.html.A\'>, \'ANY_OF\': <class \'gluon.validators.ANY_OF\'>, \'Auth\': <class \'gluon.tools.Auth\'>, \'B\': <class \'gluon.html.B\'>, \'BEAUTIFY\': <class \'gluon.html.BEAUTIFY\'>, \'BODY\': <class \'gluon.html.BODY\'>, \'BR\': <class \'gluon.html.BR\'>, \'BUTTON\': <class \'gluon.html.BUTTON\'>, \'CAT\': <class \'gluon.html.CAT\'>, \'CENTER\': <class \'gluon.html.CENTER\'>, ...}, layer=\'/ug/ug2k13/cse/sharvil.katariya/Downloads/web2py/applications/project2/views/default/quiz.html\')'
p84
sS'func'
p85
S'restricted'
p86
sa(dp87
g62
S'/ug/ug2k13/cse/sharvil.katariya/Downloads/web2py/applications/project2/views/default/quiz.html'
p88
sg64
(dp89
S'table'
p90
S'undefined'
p91
ssg70
I46
sg71
(dp92
I37
S'response.write(\'\\n<form enctype="multipart/form-data" action="\', escape=False)'
p93
sI38
S'URL()'
p94
sI39
S'response.write(\'" method="post">\\n\\t<select name=\\\'category_name\\\' \\n\\tonchange="jQuery(quiz_type).remove();\\n\\tajax(\\\'maker\\\', [\\\'category_name\\\'], \\\'shadow_clone\\\');">\\n\\t\', escape=False)'
p95
sI40
S'for category in categories:'
p96
sI41
S'    response.write(\'\\n\\t<option value="\', escape=False)'
p97
sI42
S'    response.write(category.id)'
p98
sI43
S'    response.write(\'" \\n\\t\', escape=False)'
p99
sI44
S'    response.write(" selected=\'selected\'" if str(category.id)==request.vars.category_name else "")'
p100
sI45
S"    response.write('>\\n\\t', escape=False)"
p101
sI46
S'    response.write(category.Name)'
p102
sI47
S"    response.write('\\n</option>\\n', escape=False)"
p103
sI48
S'    pass'
p104
sI49
S'response.write("\\n</select>\\n\\n<span id=\'shadow_clone\'></span>\\n\\n<select name=\'quiz_type\' >\\n\\t", escape=False)'
p105
sI50
S'for maker in makers:'
p106
sI51
S'    response.write(\'\\n\\t<option value="\', escape=False)'
p107
sI52
S'    response.write(maker.id)'
p108
sI53
S'    response.write(\'" \\n\\t\', escape=False)'
p109
sI54
S'    response.write(XML(" selected=\'selected\'") if str(maker.name)==request.vars.quiz_type else "")'
p110
sI55
S"    response.write('>\\n\\t', escape=False)"
p111
sI56
S'    response.write(maker.Name)'
p112
ssg83
S'()'
p113
sg85
S'<module>'
p114
sa(dp115
g62
S'/ug/ug2k13/cse/sharvil.katariya/Downloads/web2py/gluon/dal.py'
p116
sg64
(dp117
S'ae'
p118
S'AttributeError("\'Row\' object has no attribute \'Name\'",)'
p119
ssg70
I7343
sg71
(dp120
I7338
S'        except (KeyError,AttributeError,TypeError), ae:'
p121
sI7339
S'            try:'
p122
sI7340
S"                self[key] = ogetattr(self,'__get_lazy_reference__')(key)"
p123
sI7341
S'                return self[key]'
p124
sI7342
S'            except:'
p125
sI7343
S'                raise ae'
p126
sI7344
S''
sI7345
S'    __setitem__ = lambda self, key, value: setattr(self, str(key), value)'
p127
sI7346
S''
sI7347
S'    __delitem__ = object.__delattr__'
p128
ssg83
S"(self=<Row {'category': 'Current Affairs', 'id': 1L, 'name': 'Sports'}>, k='Name')"
p129
sg85
g20
sasS'pyver'
p130
S'Python 2.7: /usr/bin/python (prefix: /usr)'
p131
sS'session'
p132
g57
(S's:\x01\x00\x00<div><table><tr><td style="font-weight:bold;vertical-align:top;">last_orderby</td><td style="vertical-align:top;">:</td><td><div>None</div></td></tr><tr><td style="font-weight:bold;vertical-align:top;">last_query</td><td style="vertical-align:top;">:</td><td><div>db.questions.id&gt;0</div></td></tr></table></div>'
tRp133
sS'etype'
p134
S"<type 'exceptions.AttributeError'>"
p135
sS'date'
p136
S'Fri Apr 11 15:39:05 2014'
p137
sS'response'
p138
g57
(S's2!\x00\x00<div><table><tr><td style="font-weight:bold;vertical-align:top;">body</td><td style="vertical-align:top;">:</td><td><div>&lt;cStringIO.StringO object at 0xb0c416c0&gt;</div></td></tr><tr><td style="font-weight:bold;vertical-align:top;">cookies</td><td style="vertical-align:top;">:</td><td><div><table><tr><td style="font-weight:bold;vertical-align:top;">session_id_project2</td><td style="vertical-align:top;">:</td><td><div>127.0.0.1-f12f45a3-cd58-4dfc-8ba9-31b9b13263fd<table><tr><td style="font-weight:bold;vertical-align:top;">comment</td><td style="vertical-align:top;">:</td><td><div></div></td></tr><tr><td style="font-weight:bold;vertical-align:top;">domain</td><td style="vertical-align:top;">:</td><td><div></div></td></tr><tr><td style="font-weight:bold;vertical-align:top;">expires</td><td style="vertical-align:top;">:</td><td><div></div></td></tr><tr><td style="font-weight:bold;vertical-align:top;">httponly</td><td style="vertical-align:top;">:</td><td><div></div></td></tr><tr><td style="font-weight:bold;vertical-align:top;">max-age</td><td style="vertical-align:top;">:</td><td><div></div></td></tr><tr><td style="font-weight:bold;vertical-align:top;">path</td><td style="vertical-align:top;">:</td><td><div>/</div></td></tr><tr><td style="font-weight:bold;vertical-align:top;">secure</td><td style="vertical-align:top;">:</td><td><div></div></td></tr><tr><td style="font-weight:bold;vertical-align:top;">version</td><td style="vertical-align:top;">:</td><td><div></div></td></tr></table></div></td></tr></table></div></td></tr><tr><td style="font-weight:bold;vertical-align:top;">delimiters</td><td style="vertical-align:top;">:</td><td><div><table><tr><td><div>{{</div></td></tr><tr><td><div>}}</div></td></tr></table></div></td></tr><tr><td style="font-weight:bold;vertical-align:top;">files</td><td style="vertical-align:top;">:</td><td><div><table><tr><td><div>/project2/static/js/jquery.js</div></td></tr><tr><td><div>/project2/static/css/calendar.css</div></td></tr><tr><td><div>/project2/static/js/calendar.js</div></td></tr><tr><td><div>/project2/static/js/web2py.js</div></td></tr><tr><td><div>/project2/static/plugin_layouts/layouts/Customize/style.css</div></td></tr><tr><td><div>/project2/static/plugin_layouts/superfish.js</div></td></tr></table></div></td></tr><tr><td style="font-weight:bold;vertical-align:top;">flash</td><td style="vertical-align:top;">:</td><td><div></div></td></tr><tr><td style="font-weight:bold;vertical-align:top;">generic_patterns</td><td style="vertical-align:top;">:</td><td><div><table><tr><td><div>*</div></td></tr></table></div></td></tr><tr><td style="font-weight:bold;vertical-align:top;">google_analytics_id</td><td style="vertical-align:top;">:</td><td><div>None</div></td></tr><tr><td style="font-weight:bold;vertical-align:top;">headers</td><td style="vertical-align:top;">:</td><td><div><table><tr><td style="font-weight:bold;vertical-align:top;">X-Powered-By</td><td style="vertical-align:top;">:</td><td><div>web2py</div></td></tr></table></div></td></tr><tr><td style="font-weight:bold;vertical-align:top;">logo</td><td style="vertical-align:top;">:</td><td><div><a class="brand" href="http://www.web2py.com/"><b>web<span>2</span>py</b>&trade;&nbsp;</a></div></td></tr><tr><td style="font-weight:bold;vertical-align:top;">menu</td><td style="vertical-align:top;">:</td><td><div><table><tr><td><div><table><tr><td><div>Home</div></td></tr><tr><td><div>False</div></td></tr><tr><td><div>/project2/default/index</div></td></tr><tr><td><div><table></table></div></td></tr></table></div></td></tr><tr><td><div><table><tr><td><div>General Knowledge Questions</div></td></tr><tr><td><div>False</div></td></tr><tr><td><div>/project2/default/take_ques1</div></td></tr></table></div></td></tr><tr><td><div><table><tr><td><div>Sports Questions</div></td></tr><tr><td><div>False</div></td></tr><tr><td><div>/project2/default/take_ques2</div></td></tr></table></div></td></tr><tr><td><div><table><tr><td><div>Aptitude Questions</div></td></tr><tr><td><div>False</div></td></tr><tr><td><div>/project2/default/take_ques3</div></td></tr></table></div></td></tr><tr><td><div><table><tr><td><div><span class="highlighted">Quiz</span></div></td></tr><tr><td><div>False</div></td></tr><tr><td><div>http://web2py.com</div></td></tr></table></div></td></tr><tr><td><div><table><tr><td><div><span class="highlighted">Games</span></div></td></tr><tr><td><div>False</div></td></tr><tr><td><div>http://web2py.com</div></td></tr></table></div></td></tr></table></div></td></tr><tr><td style="font-weight:bold;vertical-align:top;">meta</td><td style="vertical-align:top;">:</td><td><div><table><tr><td style="font-weight:bold;vertical-align:top;">author</td><td style="vertical-align:top;">:</td><td><div>Sharvil Katariya</div></td></tr><tr><td style="font-weight:bold;vertical-align:top;">generator</td><td style="vertical-align:top;">:</td><td><div>Web2py Web Framework</div></td></tr><tr><td style="font-weight:bold;vertical-align:top;">keywords</td><td style="vertical-align:top;">:</td><td><div>web2py, python, framework</div></td></tr></table></div></td></tr><tr><td style="font-weight:bold;vertical-align:top;">models_to_run</td><td style="vertical-align:top;">:</td><td><div><table><tr><td><div>^\\w+\\.py$</div></td></tr><tr><td><div>^default/\\w+\\.py$</div></td></tr><tr><td><div>^default/quiz/\\w+\\.py$</div></td></tr></table></div></td></tr><tr><td style="font-weight:bold;vertical-align:top;">postprocessing</td><td style="vertical-align:top;">:</td><td><div><table></table></div></td></tr><tr><td style="font-weight:bold;vertical-align:top;">session_client</td><td style="vertical-align:top;">:</td><td><div>127.0.0.1</div></td></tr><tr><td style="font-weight:bold;vertical-align:top;">session_cookie_compression_level</td><td style="vertical-align:top;">:</td><td><div>None</div></td></tr><tr><td style="font-weight:bold;vertical-align:top;">session_cookie_expires</td><td style="vertical-align:top;">:</td><td><div>None</div></td></tr><tr><td style="font-weight:bold;vertical-align:top;">session_cookie_key</td><td style="vertical-align:top;">:</td><td><div>None</div></td></tr><tr><td style="font-weight:bold;vertical-align:top;">session_data_name</td><td style="vertical-align:top;">:</td><td><div>session_data_project2</div></td></tr><tr><td style="font-weight:bold;vertical-align:top;">session_file</td><td style="vertical-align:top;">:</td><td><div>&lt;open file &#x27;/ug/ug2k13/cse/sharvil.katariya/Downloads/web2py/applications/project2/sessions/127.0.0.1-f12f45a3-cd58-4dfc-8ba9-31b9b13263fd&#x27;, mode &#x27;rb+&#x27; at 0xb6cc3f40&gt;</div></td></tr><tr><td style="font-weight:bold;vertical-align:top;">session_filename</td><td style="vertical-align:top;">:</td><td><div>/ug/ug2k13/cse/sharvil.katariya/Downloads/web2py/applications/project2/sessions/127.0.0.1-f12f45a3-cd58-4dfc-8ba9-31b9b13263fd</div></td></tr><tr><td style="font-weight:bold;vertical-align:top;">session_hash</td><td style="vertical-align:top;">:</td><td><div>c7c45f6cc38cafcf61231b91e1be09b6</div></td></tr><tr><td style="font-weight:bold;vertical-align:top;">session_id</td><td style="vertical-align:top;">:</td><td><div>127.0.0.1-f12f45a3-cd58-4dfc-8ba9-31b9b13263fd</div></td></tr><tr><td style="font-weight:bold;vertical-align:top;">session_id_name</td><td style="vertical-align:top;">:</td><td><div>session_id_project2</div></td></tr><tr><td style="font-weight:bold;vertical-align:top;">session_locked</td><td style="vertical-align:top;">:</td><td><div>True</div></td></tr><tr><td style="font-weight:bold;vertical-align:top;">session_masterapp</td><td style="vertical-align:top;">:</td><td><div>project2</div></td></tr><tr><td style="font-weight:bold;vertical-align:top;">session_new</td><td style="vertical-align:top;">:</td><td><div>False</div></td></tr><tr><td style="font-weight:bold;vertical-align:top;">session_storage_type</td><td style="vertical-align:top;">:</td><td><div>file</div></td></tr><tr><td style="font-weight:bold;vertical-align:top;">status</td><td style="vertical-align:top;">:</td><td><div>200</div></td></tr><tr><td style="font-weight:bold;vertical-align:top;">subtitle</td><td style="vertical-align:top;">:</td><td><div></div></td></tr><tr><td style="font-weight:bold;vertical-align:top;">title</td><td style="vertical-align:top;">:</td><td><div>Project2</div></td></tr><tr><td style="font-weight:bold;vertical-align:top;">view</td><td style="vertical-align:top;">:</td><td><div>default/quiz.html</div></td></tr></table></div>'
tRp139
sS'locals'
p140
(dp141
S'ae'
p142
S'AttributeError("\'Row\' object has no attribute \'Name\'",)'
p143
sS'k'
S"'Name'"
p144
sS'm'
S'None'
p145
sS'_extra'
p146
S'None'
p147
sS'key'
p148
S"'Name'"
p149
sS'self'
p150
S"<Row {'category': 'Current Affairs', 'id': 1L, 'name': 'Sports'}>"
p151
sssS'traceback'
p152
S'Traceback (most recent call last):\n  File "/ug/ug2k13/cse/sharvil.katariya/Downloads/web2py/gluon/restricted.py", line 217, in restricted\n    exec ccode in environment\n  File "/ug/ug2k13/cse/sharvil.katariya/Downloads/web2py/applications/project2/views/default/quiz.html", line 46, in <module>\n    </table>\n  File "/ug/ug2k13/cse/sharvil.katariya/Downloads/web2py/gluon/dal.py", line 7343, in __getitem__\n    raise ae\nAttributeError: \'Row\' object has no attribute \'Name\'\n'
p153
s.