(dp1
S'output'
p2
S"<class 'sqlite3.OperationalError'> no such table: usage_statistics"
p3
sS'layer'
p4
S'/ug/ug2k13/cse/sharvil.katariya/Downloads/web2py/applications/project2/controllers/default.py'
p5
sS'code'
p6
S'# -*- coding: utf-8 -*-\n# this file is released under public domain and you can use without limitations\n\n#########################################################################\n## This is a sample controller\n## - index is the default action of any application\n## - user is required for authentication and authorization\n## - download is for downloading files uploaded in the db (does streaming)\n## - call exposes all registered services (none by default)\n#########################################################################\n\n\ndef index():\n    """\n    example action using the internationalization operator T and flash\n    rendered by views/default/index.html or views/generic.html\n\n    if you need a simple wiki simply replace the two lines below with:\n    return auth.wiki()\n    """\n    response.flash = T("Welcome to web2py!")\n    return dict(message=T(\'Hello World\'))\n\n\ndef user():\n    """\n    exposes:\n    http://..../[app]/default/user/login\n    http://..../[app]/default/user/logout\n    http://..../[app]/default/user/register\n    http://..../[app]/default/user/profile\n    http://..../[app]/default/user/retrieve_password\n    http://..../[app]/default/user/change_password\n    http://..../[app]/default/user/manage_users (requires membership in\n    use @auth.requires_login()\n        @auth.requires_membership(\'group name\')\n        @auth.requires_permission(\'read\',\'table name\',record_id)\n    to decorate functions that need access control\n    """\n    return dict(form=auth())\n\n@cache.action()\ndef download():\n    """\n    allows downloading of uploaded files\n    http://..../[app]/default/download/[filename]\n    """\n    return response.download(request, db)\n\n\ndef call():\n    """\n    exposes services. for example:\n    http://..../[app]/default/call/jsonrpc\n    decorate with @services.jsonrpc the functions to expose\n    supports xml, json, xmlrpc, jsonrpc, amfrpc, rss, csv\n    """\n    return service()\n\n\n@auth.requires_signature()\ndef data():\n    """\n    http://..../[app]/default/data/tables\n    http://..../[app]/default/data/create/[table]\n    http://..../[app]/default/data/read/[table]/[id]\n    http://..../[app]/default/data/update/[table]/[id]\n    http://..../[app]/default/data/delete/[table]/[id]\n    http://..../[app]/default/data/select/[table]\n    http://..../[app]/default/data/search/[table]\n    but URLs must be signed, i.e. linked with\n      A(\'table\',_href=URL(\'data/tables\',user_signature=True))\n    or with the signed load operator\n      LOAD(\'default\',\'data.load\',args=\'tables\',ajax=True,user_signature=True)\n    """\n    return dict(form=crud())\n\ndef login(): \n    return dict(form=auth.login())\n\ndef register(): \n    return dict(form=auth.register())\n    \n@auth.requires_login()\ndef changepassword():\n    return dict(form=auth.change_password)\n\n@auth.requires_login()\ndef profile(): \n    {{db.usage_statistics.insert()}}\n    {{db.commit()}}\n    return dict(form=auth.profile())\n\n\'\'\'def all_records():\n    grid = SQLFORM.grid(db.auth.settings.table_user_name,user_signature=False)\n    return locals()\'\'\'\n\ndef retrieve():\n    return dict(form=auth.retrieve_password())\n\n@auth.requires_login()\ndef hello():\n    return dict(message=\'hello %(first_name)s %(last_name)s\' % auth.user)\n\ndef select():\n    db.usage_statistics.id.readable = False\n    table = SQLFORM.grid(db.usage_statistics, orderby=~db.usage_statistics.time_stamp, ui=\'jquery-ui\', formstyle = \'divs\')\n    return dict(table=table)\nresponse._vars=response._caller(profile)\n'
p7
sS'snapshot'
p8
(dp9
sS'traceback'
p10
S'Traceback (most recent call last):\n  File "/ug/ug2k13/cse/sharvil.katariya/Downloads/web2py/gluon/restricted.py", line 217, in restricted\n    exec ccode in environment\n  File "/ug/ug2k13/cse/sharvil.katariya/Downloads/web2py/applications/project2/controllers/default.py", line 109, in <module>\n  File "/ug/ug2k13/cse/sharvil.katariya/Downloads/web2py/gluon/globals.py", line 385, in <lambda>\n    self._caller = lambda f: f()\n  File "/ug/ug2k13/cse/sharvil.katariya/Downloads/web2py/gluon/tools.py", line 3259, in f\n    return action(*a, **b)\n  File "/ug/ug2k13/cse/sharvil.katariya/Downloads/web2py/applications/project2/controllers/default.py", line 90, in profile\n    {{db.usage_statistics.insert()}}\n  File "/ug/ug2k13/cse/sharvil.katariya/Downloads/web2py/gluon/dal.py", line 9114, in insert\n    ret =  self._db._adapter.insert(self, self._listify(fields))\n  File "/ug/ug2k13/cse/sharvil.katariya/Downloads/web2py/gluon/dal.py", line 1360, in insert\n    raise e\nOperationalError: no such table: usage_statistics\n'
p11
s.