(dp1
S'output'
p2
S"<class 'sqlite3.OperationalError'> no such table: usage_statistics"
p3
sS'layer'
p4
S'/home/dell/Downloads/web2py/applications/project/models/db.py'
p5
sS'code'
p6
S'# -*- coding: utf-8 -*-\n\n#########################################################################\n## This scaffolding model makes your app work on Google App Engine too\n## File is released under public domain and you can use without limitations\n#########################################################################\n\n## if SSL/HTTPS is properly configured and you want all HTTP requests to\n## be redirected to HTTPS, uncomment the line below:\n# request.requires_https()\n\nif not request.env.web2py_runtime_gae:\n    ## if NOT running on Google App Engine use SQLite or other DB\n    db = DAL(\'sqlite://storage.sqlite\',pool_size=1,check_reserved=[\'all\'])\nelse:\n    ## connect to Google BigTable (optional \'google:datastore://namespace\')\n    db = DAL(\'google:datastore\')\n    ## store sessions and tickets there\n    session.connect(request, response, db=db)\n    ## or store session in Memcache, Redis, etc.\n    ## from gluon.contrib.memdb import MEMDB\n    ## from google.appengine.api.memcache import Client\n    ## session.connect(request, response, db = MEMDB(Client()))\n\n## by default give a view/generic.extension to all actions from localhost\n## none otherwise. a pattern can be \'controller/function.extension\'\nresponse.generic_patterns = [\'*\'] if request.is_local else []\n## (optional) optimize handling of static files\n# response.optimize_css = \'concat,minify,inline\'\n# response.optimize_js = \'concat,minify,inline\'\n## (optional) static assets folder versioning\n# response.static_version = \'0.0.0\'\n#########################################################################\n## Here is sample code if you need for\n## - email capabilities\n## - authentication (registration, login, logout, ... )\n## - authorization (role based authorization)\n## - services (xml, csv, json, xmlrpc, jsonrpc, amf, rss)\n## - old style crud actions\n## (more options discussed in gluon/tools.py)\n#########################################################################\n\nfrom gluon.tools import Auth, Crud, Service, PluginManager, prettydate\nauth = Auth(db)\ncrud, service, plugins = Crud(db), Service(), PluginManager()\n\ndb.define_table(\n    auth.settings.table_user_name,\n    Field(\'first_name\',length=\'128\',default=\'\',requires=[IS_NOT_EMPTY()]),\n    Field(\'last_name\',length=\'128\',default=\'\',requires=[IS_NOT_EMPTY()]),\n    Field(\'username\', requires=[IS_NOT_EMPTY(),IS_ALPHANUMERIC()]),\n    Field(\'email\', unique=True,requires=[IS_NOT_EMPTY(),IS_EMAIL()],default="xyz@abc.com"),\n    Field(\'date_of_birth\',\'date\',requires=IS_DATE(error_message=\'must be YYYY-MM-DD!\')),\n    Field(\'password\',\'password\',readable=False,label=\'Password\',requires=IS_NOT_EMPTY()),\n    Field(\'image\',\'upload\',readable=False,requires=[]),\n    Field(\'gender\',default=\'Male\',requires=IS_IN_SET([\'Male\',\'Female\'])),\n    Field(\'registration_key\', length=512, writable=False, readable=False, default=\'\'),\n    Field(\'reset_password_key\', length=512, writable=False, readable=False, default=\'\'),\n    Field(\'registration_id\', length=512, writable=False, readable=False, default=\'\')\n    )\ncustom_auth_table = db[auth.settings.table_user_name] # get the custom_auth_table\ncustom_auth_table.first_name.requires = \\\nIS_NOT_EMPTY(error_message=auth.messages.is_empty)\ncustom_auth_table.last_name.requires = \\\nIS_NOT_EMPTY(error_message=auth.messages.is_empty)\ncustom_auth_table.password.requires = [IS_STRONG(min=5), CRYPT()]\nimport os\ncustom_auth_table.image.default = os.path.join(request.folder, \'static\', \'images\', \'user.jpg\')\ncustom_auth_table.email.requires = [\nIS_EMAIL(error_message=auth.messages.invalid_email),\nIS_NOT_IN_DB(db, custom_auth_table.email)]\nauth.settings.table_user = custom_auth_table\nauth.settings.registration_requires_verification = True\nauth.settings.registration_requires_approval = False\nauth.settings.reset_password_requires_verification = True\nauth.messages.verify_email = \'Click on the link http://\' + \\\nrequest.env.http_host + \\\nURL(r=request,c=\'default\',f=\'user\',args=[\'verify_email\']) + \\\n\'/%(key)s to verify your email\'\nauth.messages.reset_password = \'Click on the link http://\' + \\\nrequest.env.http_host + \\\nURL(r=request,c=\'default\',f=\'user\',args=[\'reset_password\']) + \\\n\'/%(key)s to reset your password\'\n\nauth.define_tables(username=True, signature=False)\nauth_table = auth.settings.table_user\nauth_table.username.requires = IS_NOT_IN_DB(db, auth_table.username)\n## configure email\nmail = auth.settings.mailer\nmail.settings.server = \'smtp.gmail.com:587\' or \'logging\' \nmail.settings.sender = \'registerkbc@gmail.com\'\nmail.settings.login = \'registerkbc:registerquiz\'\n\n\n## configure auth policy\nauth.settings.registration_requires_verification = True\nauth.settings.registration_requires_approval = False\nauth.settings.reset_password_requires_verification = True\n\n## if you need to use OpenID, Facebook, MySpace, Twitter, Linkedin, etc.\n## register with janrain.com, write your domain:api_key in private/janrain.key\nfrom gluon.contrib.login_methods.rpx_account import use_janrain\nuse_janrain(auth, filename=\'private/janrain.key\')\n\ndb.define_table(\n    \'category\',\n    Field(\'name\',length=256,default=\'\',requires=[IS_NOT_EMPTY()]),\n    format=\'%(name)s\'\n)\n\ndb.define_table(\n    \'subcategory\',\n    Field(\'name\',length=256,default=\'\',requires=[IS_NOT_EMPTY()]),\n    Field(\'category_id\',length=256,default=\'\'),\n    Field(\'Serial\',\'integer\'),\n    format=\'%(name)s\'\n    )\n\ndb.subcategory.category_id.requires=IS_IN_DB(db,db.category.id,zero=T(\'choose any one\'))\n\ndb.define_table(\n    \'questions\',\n    Field(\'category\',default=\'\',requires=[IS_NOT_EMPTY()]),\n    Field(\'subcategory\',\'string\'),\n    Field(\'RollNo\',\'integer\'),\n    Field(\'question\',length=\'512\',default=\'\',requires=[IS_NOT_EMPTY()]),\n    Field(\'opt1\',length=\'512\',default=\'\',requires=[IS_NOT_EMPTY()]),\n    Field(\'opt2\',length=\'512\',default=\'\',requires=[IS_NOT_EMPTY()]),\n    Field(\'opt3\',length=\'512\',default=\'\',requires=[IS_NOT_EMPTY()]),\n    Field(\'opt4\',length=\'512\',default=\'\',requires=[IS_NOT_EMPTY()]),\n    Field(\'answer\',\'string\')\n    )\n\n#db.questions.category.requires=IS_IN_DB(db,db.category.id,\'%(id)s\',zero=T(\'choose one\'))\n#db.questions.subcategory.requires=IS_IN_DB(db,db.subcategory.id,\'%(id)s\',zero=T(\'choose one\'))\n\n#db.subcategory.truncate()\n\nif db(db.category.id>0).count() == 0:\n    db.category.insert(name=\'General Knowledge\')\n    db.category.insert(name=\'Current Affairs\')\n    db.category.insert(name=\'Aptitude\')\n\nif db(db.subcategory.id>0).count() == 0:\n    db.subcategory.insert(name=\'Computers & Technology\', category_id=1,Serial=1)\n    db.subcategory.insert(name=\'History\', category_id=1,Serial=2)\n    db.subcategory.insert(name=\'Geography\', category_id=1,Serial=3)\n    db.subcategory.insert(name=\'Literature\', category_id=1,Serial=4)\n    db.subcategory.insert(name=\'Sports\', category_id=2,Serial=1)\n    db.subcategory.insert(name=\'Politics\', category_id=2,Serial=2)\n    db.subcategory.insert(name=\'Science\', category_id=3,Serial=1)\n    db.subcategory.insert(name=\'Mathematics\', category_id=3,Serial=2)\n    db.subcategory.insert(name=\'Others\', category_id=3,Serial=3)\n    \ndb.define_table(\'usage_statistics\',\n    Field(\'time_stamp\',\'datetime\', default=request.now),\n    Field(\'client_ip\',\'string\', default=request.client),\n    Field(\'user_id\', \'reference auth_user\', default=auth.user and auth.user.id),\n    Field(\'request_controller\',\'string\', default=request.controller),\n    Field(\'request_function\',\'string\', default=request.function),\n    Field(\'request_extension\',\'string\', default=request.extension),\n    Field(\'request_ajax\',\'string\', default=request.ajax),\n    Field(\'request_args\',\'string\', default=request.args),\n    Field(\'request_vars\',\'string\', default=request.vars),\n    Field(\'request_view\',\'string\', default=request.view),\n    Field(\'request_http_user_agent\',\'string\', default=request.env.http_user_agent),\n    Field(\'request_language\',\'string\', default=request.env.http_accept_language),\n    Field(\'description\', \'text\'),\n    migrate=False\n    )\n\ndb.usage_statistics.truncate()\n#########################################################################\n## Define your tables below (or better in another model file) for example\n##\n## >>> db.define_table(\'mytable\',Field(\'myfield\',\'string\'))\ndb.define_table(\n    \'userScore\',\n    Field(\'userid\',default=auth.user.id if auth.user else 0),\n    Field(\'dateTime\',\'datetime\',default=request.now),\n    Field(\'Correctans\',\'integer\',label=\'Correct answers\'),\n    Field(\'Wrongans\',\'integer\'),\n    Field(\'Notattempted\',\'integer\'),\n    Field(\'Score\',\'integer\')\n  )\ndb.userScore.userid.readable=db.userScore.userid.writable=False;\n#db.userScore.truncate()\n\n## Fields can be \'string\',\'text\',\'password\',\'integer\',\'double\',\'boolean\'\n##       \'date\',\'time\',\'datetime\',\'blob\',\'upload\', \'reference TABLENAME\'\n## There is an implicit \'id integer autoincrement\' field\n## Consult manual for more options, validators, etc.\n##\n## More API examples for controllers:\n##\n## >>> db.mytable.insert(myfield=\'value\')\n## >>> rows=db(db.mytable.myfield==\'value\').select(db.mytable.ALL)\n## >>> for row in rows: print row.id, row.myfield\n#########################################################################\n\n## after defining tables, uncomment below to enable auditing\n# auth.enable_record_versioning(db)\n'
p7
sS'snapshot'
p8
(dp9
S'exception'
p10
(dp11
S'__module__'
p12
S"'sqlite3'"
p13
sS'__getslice__'
p14
S"<method-wrapper '__getslice__' of OperationalError object>"
p15
sS'__str__'
p16
S"<method-wrapper '__str__' of OperationalError object>"
p17
sS'__reduce__'
p18
S'<built-in method __reduce__ of OperationalError object>'
p19
sS'__dict__'
p20
S'{}'
p21
sS'__sizeof__'
p22
S'<built-in method __sizeof__ of OperationalError object>'
p23
sS'__weakref__'
p24
S'None'
p25
sS'__init__'
p26
S"<method-wrapper '__init__' of OperationalError object>"
p27
sS'__setattr__'
p28
S"<method-wrapper '__setattr__' of OperationalError object>"
p29
sS'__reduce_ex__'
p30
S'<built-in method __reduce_ex__ of OperationalError object>'
p31
sS'__new__'
p32
S'<built-in method __new__ of type object>'
p33
sS'__format__'
p34
S'<built-in method __format__ of OperationalError object>'
p35
sS'__class__'
p36
S"<class 'sqlite3.OperationalError'>"
p37
sS'__doc__'
p38
S'None'
p39
sS'__getitem__'
p40
S"<method-wrapper '__getitem__' of OperationalError object>"
p41
sS'__setstate__'
p42
S'<built-in method __setstate__ of OperationalError object>'
p43
sS'__getattribute__'
p44
S"<method-wrapper '__getattribute__' of OperationalError object>"
p45
sS'args'
p46
S"('no such table: usage_statistics',)"
p47
sS'__subclasshook__'
p48
S'<built-in method __subclasshook__ of type object>'
p49
sS'__unicode__'
p50
S'<built-in method __unicode__ of OperationalError object>'
p51
sS'__delattr__'
p52
S"<method-wrapper '__delattr__' of OperationalError object>"
p53
sS'__repr__'
p54
S"<method-wrapper '__repr__' of OperationalError object>"
p55
sS'__hash__'
p56
S"<method-wrapper '__hash__' of OperationalError object>"
p57
ssS'evalue'
p58
S'no such table: usage_statistics'
p59
sS'request'
p60
cgluon.html
XML_unpickle
p61
(S's!k\x00\x00<div><table><tr><td style="font-weight:bold;vertical-align:top;">ajax</td><td style="vertical-align:top;">:</td><td><div>False</div></td></tr><tr><td style="font-weight:bold;vertical-align:top;">application</td><td style="vertical-align:top;">:</td><td><div>project</div></td></tr><tr><td style="font-weight:bold;vertical-align:top;">args</td><td style="vertical-align:top;">:</td><td><div><table></table></div></td></tr><tr><td style="font-weight:bold;vertical-align:top;">cid</td><td style="vertical-align:top;">:</td><td><div>None</div></td></tr><tr><td style="font-weight:bold;vertical-align:top;">client</td><td style="vertical-align:top;">:</td><td><div>127.0.0.1</div></td></tr><tr><td style="font-weight:bold;vertical-align:top;">controller</td><td style="vertical-align:top;">:</td><td><div>appadmin</div></td></tr><tr><td style="font-weight:bold;vertical-align:top;">cookies</td><td style="vertical-align:top;">:</td><td><div><table><tr><td style="font-weight:bold;vertical-align:top;">session_id_admin</td><td style="vertical-align:top;">:</td><td><div>127.0.0.1-f103d2af-d68a-45d2-a3ba-325ebd296dfe<table><tr><td style="font-weight:bold;vertical-align:top;">comment</td><td style="vertical-align:top;">:</td><td><div></div></td></tr><tr><td style="font-weight:bold;vertical-align:top;">domain</td><td style="vertical-align:top;">:</td><td><div></div></td></tr><tr><td style="font-weight:bold;vertical-align:top;">expires</td><td style="vertical-align:top;">:</td><td><div></div></td></tr><tr><td style="font-weight:bold;vertical-align:top;">httponly</td><td style="vertical-align:top;">:</td><td><div></div></td></tr><tr><td style="font-weight:bold;vertical-align:top;">max-age</td><td style="vertical-align:top;">:</td><td><div></div></td></tr><tr><td style="font-weight:bold;vertical-align:top;">path</td><td style="vertical-align:top;">:</td><td><div></div></td></tr><tr><td style="font-weight:bold;vertical-align:top;">secure</td><td style="vertical-align:top;">:</td><td><div></div></td></tr><tr><td style="font-weight:bold;vertical-align:top;">version</td><td style="vertical-align:top;">:</td><td><div></div></td></tr></table></div></td></tr><tr><td style="font-weight:bold;vertical-align:top;">session_id_practice2</td><td style="vertical-align:top;">:</td><td><div>127.0.0.1-aaf33411-597a-480b-8c6f-a85eb1e24938<table><tr><td style="font-weight:bold;vertical-align:top;">comment</td><td style="vertical-align:top;">:</td><td><div></div></td></tr><tr><td style="font-weight:bold;vertical-align:top;">domain</td><td style="vertical-align:top;">:</td><td><div></div></td></tr><tr><td style="font-weight:bold;vertical-align:top;">expires</td><td style="vertical-align:top;">:</td><td><div></div></td></tr><tr><td style="font-weight:bold;vertical-align:top;">httponly</td><td style="vertical-align:top;">:</td><td><div></div></td></tr><tr><td style="font-weight:bold;vertical-align:top;">max-age</td><td style="vertical-align:top;">:</td><td><div></div></td></tr><tr><td style="font-weight:bold;vertical-align:top;">path</td><td style="vertical-align:top;">:</td><td><div></div></td></tr><tr><td style="font-weight:bold;vertical-align:top;">secure</td><td style="vertical-align:top;">:</td><td><div></div></td></tr><tr><td style="font-weight:bold;vertical-align:top;">version</td><td style="vertical-align:top;">:</td><td><div></div></td></tr></table></div></td></tr><tr><td style="font-weight:bold;vertical-align:top;">session_id_project</td><td style="vertical-align:top;">:</td><td><div>127.0.0.1-bc10618d-0d07-4169-bae7-d354f661b2d6<table><tr><td style="font-weight:bold;vertical-align:top;">comment</td><td style="vertical-align:top;">:</td><td><div></div></td></tr><tr><td style="font-weight:bold;vertical-align:top;">domain</td><td style="vertical-align:top;">:</td><td><div></div></td></tr><tr><td style="font-weight:bold;vertical-align:top;">expires</td><td style="vertical-align:top;">:</td><td><div></div></td></tr><tr><td style="font-weight:bold;vertical-align:top;">httponly</td><td style="vertical-align:top;">:</td><td><div></div></td></tr><tr><td style="font-weight:bold;vertical-align:top;">max-age</td><td style="vertical-align:top;">:</td><td><div></div></td></tr><tr><td style="font-weight:bold;vertical-align:top;">path</td><td style="vertical-align:top;">:</td><td><div></div></td></tr><tr><td style="font-weight:bold;vertical-align:top;">secure</td><td style="vertical-align:top;">:</td><td><div></div></td></tr><tr><td style="font-weight:bold;vertical-align:top;">version</td><td style="vertical-align:top;">:</td><td><div></div></td></tr></table></div></td></tr><tr><td style="font-weight:bold;vertical-align:top;">session_id_project2</td><td style="vertical-align:top;">:</td><td><div>127.0.0.1-9ac60fd7-ce7f-4a8a-b22b-4915e75f73a9<table><tr><td style="font-weight:bold;vertical-align:top;">comment</td><td style="vertical-align:top;">:</td><td><div></div></td></tr><tr><td style="font-weight:bold;vertical-align:top;">domain</td><td style="vertical-align:top;">:</td><td><div></div></td></tr><tr><td style="font-weight:bold;vertical-align:top;">expires</td><td style="vertical-align:top;">:</td><td><div></div></td></tr><tr><td style="font-weight:bold;vertical-align:top;">httponly</td><td style="vertical-align:top;">:</td><td><div></div></td></tr><tr><td style="font-weight:bold;vertical-align:top;">max-age</td><td style="vertical-align:top;">:</td><td><div></div></td></tr><tr><td style="font-weight:bold;vertical-align:top;">path</td><td style="vertical-align:top;">:</td><td><div></div></td></tr><tr><td style="font-weight:bold;vertical-align:top;">secure</td><td style="vertical-align:top;">:</td><td><div></div></td></tr><tr><td style="font-weight:bold;vertical-align:top;">version</td><td style="vertical-align:top;">:</td><td><div></div></td></tr></table></div></td></tr><tr><td style="font-weight:bold;vertical-align:top;">session_id_quiztopher</td><td style="vertical-align:top;">:</td><td><div>127.0.0.1-57816a73-eb0e-4790-adee-2d3b7d0683e1<table><tr><td style="font-weight:bold;vertical-align:top;">comment</td><td style="vertical-align:top;">:</td><td><div></div></td></tr><tr><td style="font-weight:bold;vertical-align:top;">domain</td><td style="vertical-align:top;">:</td><td><div></div></td></tr><tr><td style="font-weight:bold;vertical-align:top;">expires</td><td style="vertical-align:top;">:</td><td><div></div></td></tr><tr><td style="font-weight:bold;vertical-align:top;">httponly</td><td style="vertical-align:top;">:</td><td><div></div></td></tr><tr><td style="font-weight:bold;vertical-align:top;">max-age</td><td style="vertical-align:top;">:</td><td><div></div></td></tr><tr><td style="font-weight:bold;vertical-align:top;">path</td><td style="vertical-align:top;">:</td><td><div></div></td></tr><tr><td style="font-weight:bold;vertical-align:top;">secure</td><td style="vertical-align:top;">:</td><td><div></div></td></tr><tr><td style="font-weight:bold;vertical-align:top;">version</td><td style="vertical-align:top;">:</td><td><div></div></td></tr></table></div></td></tr><tr><td style="font-weight:bold;vertical-align:top;">session_id_welcome</td><td style="vertical-align:top;">:</td><td><div>127.0.0.1-6d77e213-5ff1-49df-a480-0d52a7947038<table><tr><td style="font-weight:bold;vertical-align:top;">comment</td><td style="vertical-align:top;">:</td><td><div></div></td></tr><tr><td style="font-weight:bold;vertical-align:top;">domain</td><td style="vertical-align:top;">:</td><td><div></div></td></tr><tr><td style="font-weight:bold;vertical-align:top;">expires</td><td style="vertical-align:top;">:</td><td><div></div></td></tr><tr><td style="font-weight:bold;vertical-align:top;">httponly</td><td style="vertical-align:top;">:</td><td><div></div></td></tr><tr><td style="font-weight:bold;vertical-align:top;">max-age</td><td style="vertical-align:top;">:</td><td><div></div></td></tr><tr><td style="font-weight:bold;vertical-align:top;">path</td><td style="vertical-align:top;">:</td><td><div></div></td></tr><tr><td style="font-weight:bold;vertical-align:top;">secure</td><td style="vertical-align:top;">:</td><td><div></div></td></tr><tr><td style="font-weight:bold;vertical-align:top;">version</td><td style="vertical-align:top;">:</td><td><div></div></td></tr></table></div></td></tr></table></div></td></tr><tr><td style="font-weight:bold;vertical-align:top;">env</td><td style="vertical-align:top;">:</td><td><div><table><tr><td style="font-weight:bold;vertical-align:top;">HTTP_ACCEPT</td><td style="vertical-align:top;">:</td><td><div>text/html,application/xhtml+xml,application/xml;q=0.9,*/*;q=0.8</div></td></tr><tr><td style="font-weight:bold;vertical-align:top;">HTTP_ACCEPT_ENCODING</td><td style="vertical-align:top;">:</td><td><div>gzip, deflate</div></td></tr><tr><td style="font-weight:bold;vertical-align:top;">HTTP_ACCEPT_LANGUAGE</td><td style="vertical-align:top;">:</td><td><div>en-US,en;q=0.5</div></td></tr><tr><td style="font-weight:bold;vertical-align:top;">HTTP_CACHE_CONTROL</td><td style="vertical-align:top;">:</td><td><div>max-age=0</div></td></tr><tr><td style="font-weight:bold;vertical-align:top;">HTTP_CONNECTION</td><td style="vertical-align:top;">:</td><td><div>keep-alive</div></td></tr><tr><td style="font-weight:bold;vertical-align:top;">HTTP_COOKIE</td><td style="vertical-align:top;">:</td><td><div>session_id_practice2=127.0.0.1-aaf33411-597a-480b-8c6f-a85eb1e24938; session_id_welcome=127.0.0.1-6d77e213-5ff1-49df-a480-0d52a7947038; session_id_quiztopher=127.0.0.1-57816a73-eb0e-4790-adee-2d3b7d0683e1; session_id_admin=127.0.0.1-f103d2af-d68a-45d2-a3ba-325ebd296dfe; session_id_project2=127.0.0.1-9ac60fd7-ce7f-4a8a-b22b-4915e75f73a9; session_id_project=127.0.0.1-bc10618d-0d07-4169-bae7-d354f661b2d6</div></td></tr><tr><td style="font-weight:bold;vertical-align:top;">HTTP_HOST</td><td style="vertical-align:top;">:</td><td><div>127.0.0.1:8000</div></td></tr><tr><td style="font-weight:bold;vertical-align:top;">HTTP_USER_AGENT</td><td style="vertical-align:top;">:</td><td><div>Mozilla/5.0 (X11; Ubuntu; Linux x86_64; rv:26.0) Gecko/20100101 Firefox/26.0</div></td></tr><tr><td style="font-weight:bold;vertical-align:top;">PATH_INFO</td><td style="vertical-align:top;">:</td><td><div>/project/appadmin</div></td></tr><tr><td style="font-weight:bold;vertical-align:top;">QUERY_STRING</td><td style="vertical-align:top;">:</td><td><div></div></td></tr><tr><td style="font-weight:bold;vertical-align:top;">REMOTE_ADDR</td><td style="vertical-align:top;">:</td><td><div>127.0.0.1</div></td></tr><tr><td style="font-weight:bold;vertical-align:top;">REMOTE_PORT</td><td style="vertical-align:top;">:</td><td><div>51591</div></td></tr><tr><td style="font-weight:bold;vertical-align:top;">REQUEST_METHOD</td><td style="vertical-align:top;">:</td><td><div>GET</div></td></tr><tr><td style="font-weight:bold;vertical-align:top;">SCRIPT_NAME</td><td style="vertical-align:top;">:</td><td><div></div></td></tr><tr><td style="font-weight:bold;vertical-align:top;">SERVER_NAME</td><td style="vertical-align:top;">:</td><td><div>ubuntu</div></td></tr><tr><td style="font-weight:bold;vertical-align:top;">SERVER_PORT</td><td style="vertical-align:top;">:</td><td><div>8000</div></td></tr><tr><td style="font-weight:bold;vertical-align:top;">SERVER_PROTOCOL</td><td style="vertical-align:top;">:</td><td><div>HTTP/1.1</div></td></tr><tr><td style="font-weight:bold;vertical-align:top;">SERVER_SOFTWARE</td><td style="vertical-align:top;">:</td><td><div>Rocket 1.2.6</div></td></tr><tr><td style="font-weight:bold;vertical-align:top;">app_folders</td><td style="vertical-align:top;">:</td><td><div>set([&#x27;/home/dell/Downloads/web2py/applications/project/&#x27;, &#x27;/home/dell/Downloads/web2py/applications/quiztopher/&#x27;, &#x27;/home/dell/Downloads/web2py/applications/welcome/&#x27;, &#x27;/home/dell/Downloads/web2py/applications/admin/&#x27;, &#x27;/home/dell/Downloads/web2py/applications/practice2/&#x27;, &#x27;/home/dell/Downloads/web2py/applications/project2/&#x27;])</div></td></tr><tr><td style="font-weight:bold;vertical-align:top;">applications_parent</td><td style="vertical-align:top;">:</td><td><div>/home/dell/Downloads/web2py</div></td></tr><tr><td style="font-weight:bold;vertical-align:top;">cmd_args</td><td style="vertical-align:top;">:</td><td><div><table></table></div></td></tr><tr><td style="font-weight:bold;vertical-align:top;">cmd_options</td><td style="vertical-align:top;">:</td><td><div>&lt;Values at 0x2fa01b8: {&#x27;verbose&#x27;: False, &#x27;ip&#x27;: &#x27;127.0.0.1&#x27;, &#x27;debuglevel&#x27;: 30, &#x27;with_scheduler&#x27;: False, &#x27;ips&#x27;: [&#x27;127.0.1.1&#x27;], &#x27;shutdown_timeout&#x27;: 5, &#x27;taskbar&#x27;: False, &#x27;with_coverage&#x27;: False, &#x27;port&#x27;: 8000, &#x27;maxthreads&#x27;: None, &#x27;softcron&#x27;: False, &#x27;server_name&#x27;: &#x27;ubuntu&#x27;, &#x27;bpython&#x27;: False, &#x27;nogui&#x27;: True, &#x27;pid_filename&#x27;: &#x27;httpserver.pid&#x27;, &#x27;extcron&#x27;: False, &#x27;runcron&#x27;: False, &#x27;run_system_tests&#x27;: False, &#x27;test&#x27;: None, &#x27;folder&#x27;: &#x27;/home/dell/Downloads/web2py&#x27;, &#x27;config&#x27;: &#x27;&#x27;, &#x27;minthreads&#x27;: None, &#x27;shell&#x27;: None, &#x27;run&#x27;: &#x27;&#x27;, &#x27;log_filename&#x27;: &#x27;httpserver.log&#x27;, &#x27;profiler_dir&#x27;: None, &#x27;args&#x27;: [&#x27;&#x27;], &#x27;socket_timeout&#x27;: 5, &#x27;ssl_ca_certificate&#x27;: None, &#x27;scheduler&#x27;: None, &#x27;interfaces&#x27;: None, &#x27;ssl_private_key&#x27;: &#x27;&#x27;, &#x27;scheduler_groups&#x27;: None, &#x27;password&#x27;: &#x27;1234&#x27;, &#x27;request_queue_size&#x27;: 5, &#x27;ssl_certificate&#x27;: &#x27;&#x27;, &#x27;cronjob&#x27;: False, &#x27;numthreads&#x27;: None, &#x27;quiet&#x27;: False, &#x27;import_models&#x27;: False, &#x27;timeout&#x27;: 10, &#x27;plain&#x27;: False, &#x27;nobanner&#x27;: False}&gt;</div></td></tr><tr><td style="font-weight:bold;vertical-align:top;">db_sessions</td><td style="vertical-align:top;">:</td><td><div>set([])</div></td></tr><tr><td style="font-weight:bold;vertical-align:top;">debugging</td><td style="vertical-align:top;">:</td><td><div>False</div></td></tr><tr><td style="font-weight:bold;vertical-align:top;">gluon_parent</td><td style="vertical-align:top;">:</td><td><div>/home/dell/Downloads/web2py</div></td></tr><tr><td style="font-weight:bold;vertical-align:top;">http_accept</td><td style="vertical-align:top;">:</td><td><div>text/html,application/xhtml+xml,application/xml;q=0.9,*/*;q=0.8</div></td></tr><tr><td style="font-weight:bold;vertical-align:top;">http_accept_encoding</td><td style="vertical-align:top;">:</td><td><div>gzip, deflate</div></td></tr><tr><td style="font-weight:bold;vertical-align:top;">http_accept_language</td><td style="vertical-align:top;">:</td><td><div>en-US,en;q=0.5</div></td></tr><tr><td style="font-weight:bold;vertical-align:top;">http_cache_control</td><td style="vertical-align:top;">:</td><td><div>max-age=0</div></td></tr><tr><td style="font-weight:bold;vertical-align:top;">http_connection</td><td style="vertical-align:top;">:</td><td><div>keep-alive</div></td></tr><tr><td style="font-weight:bold;vertical-align:top;">http_cookie</td><td style="vertical-align:top;">:</td><td><div>session_id_practice2=127.0.0.1-aaf33411-597a-480b-8c6f-a85eb1e24938; session_id_welcome=127.0.0.1-6d77e213-5ff1-49df-a480-0d52a7947038; session_id_quiztopher=127.0.0.1-57816a73-eb0e-4790-adee-2d3b7d0683e1; session_id_admin=127.0.0.1-f103d2af-d68a-45d2-a3ba-325ebd296dfe; session_id_project2=127.0.0.1-9ac60fd7-ce7f-4a8a-b22b-4915e75f73a9; session_id_project=127.0.0.1-bc10618d-0d07-4169-bae7-d354f661b2d6</div></td></tr><tr><td style="font-weight:bold;vertical-align:top;">http_host</td><td style="vertical-align:top;">:</td><td><div>127.0.0.1:8000</div></td></tr><tr><td style="font-weight:bold;vertical-align:top;">http_user_agent</td><td style="vertical-align:top;">:</td><td><div>Mozilla/5.0 (X11; Ubuntu; Linux x86_64; rv:26.0) Gecko/20100101 Firefox/26.0</div></td></tr><tr><td style="font-weight:bold;vertical-align:top;">is_jython</td><td style="vertical-align:top;">:</td><td><div>False</div></td></tr><tr><td style="font-weight:bold;vertical-align:top;">is_pypy</td><td style="vertical-align:top;">:</td><td><div>False</div></td></tr><tr><td style="font-weight:bold;vertical-align:top;">is_source</td><td style="vertical-align:top;">:</td><td><div>True</div></td></tr><tr><td style="font-weight:bold;vertical-align:top;">local_hosts</td><td style="vertical-align:top;">:</td><td><div><table><tr><td><div>ubuntu.ubuntu-domain</div></td></tr><tr><td><div>::ffff:127.0.0.1</div></td></tr><tr><td><div>::1</div></td></tr><tr><td><div>ubuntu</div></td></tr><tr><td><div>127.0.1.1</div></td></tr><tr><td><div>127.0.0.1</div></td></tr></table></div></td></tr><tr><td style="font-weight:bold;vertical-align:top;">path_info</td><td style="vertical-align:top;">:</td><td><div>/project/appadmin</div></td></tr><tr><td style="font-weight:bold;vertical-align:top;">query_string</td><td style="vertical-align:top;">:</td><td><div></div></td></tr><tr><td style="font-weight:bold;vertical-align:top;">remote_addr</td><td style="vertical-align:top;">:</td><td><div>127.0.0.1</div></td></tr><tr><td style="font-weight:bold;vertical-align:top;">remote_port</td><td style="vertical-align:top;">:</td><td><div>51591</div></td></tr><tr><td style="font-weight:bold;vertical-align:top;">request_method</td><td style="vertical-align:top;">:</td><td><div>GET</div></td></tr><tr><td style="font-weight:bold;vertical-align:top;">request_uri</td><td style="vertical-align:top;">:</td><td><div>/project/appadmin</div></td></tr><tr><td style="font-weight:bold;vertical-align:top;">script_name</td><td style="vertical-align:top;">:</td><td><div></div></td></tr><tr><td style="font-weight:bold;vertical-align:top;">server_name</td><td style="vertical-align:top;">:</td><td><div>ubuntu</div></td></tr><tr><td style="font-weight:bold;vertical-align:top;">server_port</td><td style="vertical-align:top;">:</td><td><div>8000</div></td></tr><tr><td style="font-weight:bold;vertical-align:top;">server_protocol</td><td style="vertical-align:top;">:</td><td><div>HTTP/1.1</div></td></tr><tr><td style="font-weight:bold;vertical-align:top;">server_software</td><td style="vertical-align:top;">:</td><td><div>Rocket 1.2.6</div></td></tr><tr><td style="font-weight:bold;vertical-align:top;">web2py_path</td><td style="vertical-align:top;">:</td><td><div>/home/dell/Downloads/web2py</div></td></tr><tr><td style="font-weight:bold;vertical-align:top;">web2py_version</td><td style="vertical-align:top;">:</td><td><div>2.9.4-stable+timestamp.2014.03.05.04.44.09</div></td></tr><tr><td style="font-weight:bold;vertical-align:top;">wsgi.errors</td><td style="vertical-align:top;">:</td><td><div>&lt;open file &#x27;&lt;stderr&gt;&#x27;, mode &#x27;w&#x27; at 0x7f3986d521e0&gt;</div></td></tr><tr><td style="font-weight:bold;vertical-align:top;">wsgi.file_wrapper</td><td style="vertical-align:top;">:</td><td><div>&lt;class wsgiref.util.FileWrapper at 0x2f35598&gt;</div></td></tr><tr><td style="font-weight:bold;vertical-align:top;">wsgi.input</td><td style="vertical-align:top;">:</td><td><div>&lt;socket._fileobject object at 0x7f396c0dead0&gt;</div></td></tr><tr><td style="font-weight:bold;vertical-align:top;">wsgi.multiprocess</td><td style="vertical-align:top;">:</td><td><div>False</div></td></tr><tr><td style="font-weight:bold;vertical-align:top;">wsgi.multithread</td><td style="vertical-align:top;">:</td><td><div>True</div></td></tr><tr><td style="font-weight:bold;vertical-align:top;">wsgi.run_once</td><td style="vertical-align:top;">:</td><td><div>False</div></td></tr><tr><td style="font-weight:bold;vertical-align:top;">wsgi.url_scheme</td><td style="vertical-align:top;">:</td><td><div>http</div></td></tr><tr><td style="font-weight:bold;vertical-align:top;">wsgi.version</td><td style="vertical-align:top;">:</td><td><div><table><tr><td><div>1</div></td></tr><tr><td><div>0</div></td></tr></table></div></td></tr><tr><td style="font-weight:bold;vertical-align:top;">wsgi_errors</td><td style="vertical-align:top;">:</td><td><div>&lt;open file &#x27;&lt;stderr&gt;&#x27;, mode &#x27;w&#x27; at 0x7f3986d521e0&gt;</div></td></tr><tr><td style="font-weight:bold;vertical-align:top;">wsgi_file_wrapper</td><td style="vertical-align:top;">:</td><td><div>&lt;class wsgiref.util.FileWrapper at 0x2f35598&gt;</div></td></tr><tr><td style="font-weight:bold;vertical-align:top;">wsgi_input</td><td style="vertical-align:top;">:</td><td><div>&lt;socket._fileobject object at 0x7f396c0dead0&gt;</div></td></tr><tr><td style="font-weight:bold;vertical-align:top;">wsgi_multiprocess</td><td style="vertical-align:top;">:</td><td><div>False</div></td></tr><tr><td style="font-weight:bold;vertical-align:top;">wsgi_multithread</td><td style="vertical-align:top;">:</td><td><div>True</div></td></tr><tr><td style="font-weight:bold;vertical-align:top;">wsgi_run_once</td><td style="vertical-align:top;">:</td><td><div>False</div></td></tr><tr><td style="font-weight:bold;vertical-align:top;">wsgi_url_scheme</td><td style="vertical-align:top;">:</td><td><div>http</div></td></tr><tr><td style="font-weight:bold;vertical-align:top;">wsgi_version</td><td style="vertical-align:top;">:</td><td><div><table><tr><td><div>1</div></td></tr><tr><td><div>0</div></td></tr></table></div></td></tr></table></div></td></tr><tr><td style="font-weight:bold;vertical-align:top;">extension</td><td style="vertical-align:top;">:</td><td><div>html</div></td></tr><tr><td style="font-weight:bold;vertical-align:top;">folder</td><td style="vertical-align:top;">:</td><td><div>/home/dell/Downloads/web2py/applications/project/</div></td></tr><tr><td style="font-weight:bold;vertical-align:top;">function</td><td style="vertical-align:top;">:</td><td><div>index</div></td></tr><tr><td style="font-weight:bold;vertical-align:top;">global_settings</td><td style="vertical-align:top;">:</td><td><div><table><tr><td style="font-weight:bold;vertical-align:top;">app_folders</td><td style="vertical-align:top;">:</td><td><div>set([&#x27;/home/dell/Downloads/web2py/applications/project/&#x27;, &#x27;/home/dell/Downloads/web2py/applications/quiztopher/&#x27;, &#x27;/home/dell/Downloads/web2py/applications/welcome/&#x27;, &#x27;/home/dell/Downloads/web2py/applications/admin/&#x27;, &#x27;/home/dell/Downloads/web2py/applications/practice2/&#x27;, &#x27;/home/dell/Downloads/web2py/applications/project2/&#x27;])</div></td></tr><tr><td style="font-weight:bold;vertical-align:top;">applications_parent</td><td style="vertical-align:top;">:</td><td><div>/home/dell/Downloads/web2py</div></td></tr><tr><td style="font-weight:bold;vertical-align:top;">cmd_args</td><td style="vertical-align:top;">:</td><td><div><table></table></div></td></tr><tr><td style="font-weight:bold;vertical-align:top;">cmd_options</td><td style="vertical-align:top;">:</td><td><div>&lt;Values at 0x2fa01b8: {&#x27;verbose&#x27;: False, &#x27;ip&#x27;: &#x27;127.0.0.1&#x27;, &#x27;debuglevel&#x27;: 30, &#x27;with_scheduler&#x27;: False, &#x27;ips&#x27;: [&#x27;127.0.1.1&#x27;], &#x27;shutdown_timeout&#x27;: 5, &#x27;taskbar&#x27;: False, &#x27;with_coverage&#x27;: False, &#x27;port&#x27;: 8000, &#x27;maxthreads&#x27;: None, &#x27;softcron&#x27;: False, &#x27;server_name&#x27;: &#x27;ubuntu&#x27;, &#x27;bpython&#x27;: False, &#x27;nogui&#x27;: True, &#x27;pid_filename&#x27;: &#x27;httpserver.pid&#x27;, &#x27;extcron&#x27;: False, &#x27;runcron&#x27;: False, &#x27;run_system_tests&#x27;: False, &#x27;test&#x27;: None, &#x27;folder&#x27;: &#x27;/home/dell/Downloads/web2py&#x27;, &#x27;config&#x27;: &#x27;&#x27;, &#x27;minthreads&#x27;: None, &#x27;shell&#x27;: None, &#x27;run&#x27;: &#x27;&#x27;, &#x27;log_filename&#x27;: &#x27;httpserver.log&#x27;, &#x27;profiler_dir&#x27;: None, &#x27;args&#x27;: [&#x27;&#x27;], &#x27;socket_timeout&#x27;: 5, &#x27;ssl_ca_certificate&#x27;: None, &#x27;scheduler&#x27;: None, &#x27;interfaces&#x27;: None, &#x27;ssl_private_key&#x27;: &#x27;&#x27;, &#x27;scheduler_groups&#x27;: None, &#x27;password&#x27;: &#x27;1234&#x27;, &#x27;request_queue_size&#x27;: 5, &#x27;ssl_certificate&#x27;: &#x27;&#x27;, &#x27;cronjob&#x27;: False, &#x27;numthreads&#x27;: None, &#x27;quiet&#x27;: False, &#x27;import_models&#x27;: False, &#x27;timeout&#x27;: 10, &#x27;plain&#x27;: False, &#x27;nobanner&#x27;: False}&gt;</div></td></tr><tr><td style="font-weight:bold;vertical-align:top;">db_sessions</td><td style="vertical-align:top;">:</td><td><div>set([])</div></td></tr><tr><td style="font-weight:bold;vertical-align:top;">debugging</td><td style="vertical-align:top;">:</td><td><div>False</div></td></tr><tr><td style="font-weight:bold;vertical-align:top;">gluon_parent</td><td style="vertical-align:top;">:</td><td><div>/home/dell/Downloads/web2py</div></td></tr><tr><td style="font-weight:bold;vertical-align:top;">is_jython</td><td style="vertical-align:top;">:</td><td><div>False</div></td></tr><tr><td style="font-weight:bold;vertical-align:top;">is_pypy</td><td style="vertical-align:top;">:</td><td><div>False</div></td></tr><tr><td style="font-weight:bold;vertical-align:top;">is_source</td><td style="vertical-align:top;">:</td><td><div>True</div></td></tr><tr><td style="font-weight:bold;vertical-align:top;">local_hosts</td><td style="vertical-align:top;">:</td><td><div><table><tr><td><div>ubuntu.ubuntu-domain</div></td></tr><tr><td><div>::ffff:127.0.0.1</div></td></tr><tr><td><div>::1</div></td></tr><tr><td><div>ubuntu</div></td></tr><tr><td><div>127.0.1.1</div></td></tr><tr><td><div>127.0.0.1</div></td></tr></table></div></td></tr><tr><td style="font-weight:bold;vertical-align:top;">web2py_version</td><td style="vertical-align:top;">:</td><td><div>2.9.4-stable+timestamp.2014.03.05.04.44.09</div></td></tr></table></div></td></tr><tr><td style="font-weight:bold;vertical-align:top;">is_https</td><td style="vertical-align:top;">:</td><td><div>False</div></td></tr><tr><td style="font-weight:bold;vertical-align:top;">is_local</td><td style="vertical-align:top;">:</td><td><div>True</div></td></tr><tr><td style="font-weight:bold;vertical-align:top;">is_restful</td><td style="vertical-align:top;">:</td><td><div>False</div></td></tr><tr><td style="font-weight:bold;vertical-align:top;">now</td><td style="vertical-align:top;">:</td><td><div>datetime.datetime(2014, 4, 25, 19, 23, 6, 770318)</div></td></tr><tr><td style="font-weight:bold;vertical-align:top;">raw_args</td><td style="vertical-align:top;">:</td><td><div></div></td></tr><tr><td style="font-weight:bold;vertical-align:top;">raw_extension</td><td style="vertical-align:top;">:</td><td><div>None</div></td></tr><tr><td style="font-weight:bold;vertical-align:top;">url</td><td style="vertical-align:top;">:</td><td><div>/project/appadmin</div></td></tr><tr><td style="font-weight:bold;vertical-align:top;">utcnow</td><td style="vertical-align:top;">:</td><td><div>datetime.datetime(2014, 4, 25, 13, 53, 6, 770349)</div></td></tr><tr><td style="font-weight:bold;vertical-align:top;">uuid</td><td style="vertical-align:top;">:</td><td><div>project/127.0.0.1.2014-04-25.19-23-06.5db09b8e-9c5c-4f2b-8112-73cdf5b5da8e</div></td></tr><tr><td style="font-weight:bold;vertical-align:top;">wsgi</td><td style="vertical-align:top;">:</td><td><div>&lt;gluon.main.LazyWSGI object at 0x7f39780c7f50&gt;</div></td></tr></table></div>'
tRp62
sS'frames'
p63
(lp64
(dp65
S'file'
p66
S'/home/dell/Downloads/web2py/gluon/restricted.py'
p67
sS'dump'
p68
(dp69
S'environment'
p70
S"{'A': <class 'gluon.html.A'>, 'ANY_OF': <class 'gluon.validators.ANY_OF'>, 'Auth': <class 'gluon.tools.Auth'>, 'B': <class 'gluon.html.B'>, 'BEAUTIFY': <class 'gluon.html.BEAUTIFY'>, 'BODY': <class 'gluon.html.BODY'>, 'BR': <class 'gluon.html.BR'>, 'BUTTON': <class 'gluon.html.BUTTON'>, 'CAT': <class 'gluon.html.CAT'>, 'CENTER': <class 'gluon.html.CENTER'>, ...}"
p71
sS'ccode'
p72
S'<code object <module> at 0x7f39600e17b0, file "/...b2py/applications/project/models/db.py", line 12>'
p73
ssS'lnum'
p74
I217
sS'lines'
p75
(dp76
I212
S'    try:'
p77
sI213
S'        if isinstance(code, types.CodeType):'
p78
sI214
S'            ccode = code'
p79
sI215
S'        else:'
p80
sI216
S'            ccode = compile2(code, layer)'
p81
sI217
S'        exec ccode in environment'
p82
sI218
S'    except HTTP:'
p83
sI219
S'        raise'
p84
sI220
S'    except RestrictedError:'
p85
sI221
S'        # do not encapsulate (obfuscate) the original RestrictedError'
p86
ssS'call'
p87
S"(code='# -*- coding: utf-8 -*-\\n\\n#######################...ble auditing\\n# auth.enable_record_versioning(db)\\n', environment={'A': <class 'gluon.html.A'>, 'ANY_OF': <class 'gluon.validators.ANY_OF'>, 'Auth': <class 'gluon.tools.Auth'>, 'B': <class 'gluon.html.B'>, 'BEAUTIFY': <class 'gluon.html.BEAUTIFY'>, 'BODY': <class 'gluon.html.BODY'>, 'BR': <class 'gluon.html.BR'>, 'BUTTON': <class 'gluon.html.BUTTON'>, 'CAT': <class 'gluon.html.CAT'>, 'CENTER': <class 'gluon.html.CENTER'>, ...}, layer='/home/dell/Downloads/web2py/applications/project/models/db.py')"
p88
sS'func'
p89
S'restricted'
p90
sa(dp91
g66
S'/home/dell/Downloads/web2py/applications/project/models/db.py'
p92
sg68
(dp93
S'db'
p94
S'<DAL uri="sqlite://storage.sqlite">'
p95
sS'db.usage_statistics'
p96
S'<Table usage_statistics (id,time_stamp,client_ip...st_http_user_agent,request_language,description)>'
p97
sS'db.usage_statistics.truncate'
p98
S'<bound method Table.truncate of <Table usage_sta...t_http_user_agent,request_language,description)>>'
p99
ssg74
I172
sg75
(dp100
I167
S"    Field('request_language','string', default=request.env.http_accept_language),"
p101
sI168
S"    Field('description', 'text'),"
p102
sI169
S'    migrate=False'
p103
sI170
S'    )'
p104
sI171
S''
sI172
S'db.usage_statistics.truncate()'
p105
sI173
S'#########################################################################'
p106
sI174
S'## Define your tables below (or better in another model file) for example'
p107
sI175
S'##'
p108
sI176
S"## >>> db.define_table('mytable',Field('myfield','string'))"
p109
ssg87
S'()'
p110
sg89
S'<module>'
p111
sa(dp112
g66
S'/home/dell/Downloads/web2py/gluon/dal.py'
p113
sg68
(dp114
S'self._db._adapter'
p115
S'<gluon.dal.SQLiteAdapter object>'
p116
sS'self'
p117
S'<Table usage_statistics (id,time_stamp,client_ip...st_http_user_agent,request_language,description)>'
p118
sS'mode'
p119
S'None'
p120
sS'self._db'
p121
S'<DAL uri="sqlite://storage.sqlite">'
p122
sS'self._db._adapter.truncate'
p123
S'<bound method SQLiteAdapter.truncate of <gluon.dal.SQLiteAdapter object>>'
p124
ssg74
I9190
sg75
(dp125
I9185
S''
sI9186
S'    def _truncate(self, mode=None):'
p126
sI9187
S'        return self._db._adapter._truncate(self, mode)'
p127
sI9188
S''
sI9189
S'    def truncate(self, mode=None):'
p128
sI9190
S'        return self._db._adapter.truncate(self, mode)'
p129
sI9191
S''
sI9192
S'    def import_from_csv_file('
p130
sI9193
S'        self,'
p131
sI9194
S'        csvfile,'
p132
ssg87
S'(self=<Table usage_statistics (id,time_stamp,client_ip...st_http_user_agent,request_language,description)>, mode=None)'
p133
sg89
S'truncate'
p134
sa(dp135
g66
S'/home/dell/Downloads/web2py/gluon/dal.py'
p136
sg68
(dp137
S'query'
p138
S"'DELETE FROM usage_statistics;'"
p139
sS'self'
p140
S'<gluon.dal.SQLiteAdapter object>'
p141
sS'self.execute'
p142
S'<bound method SQLiteAdapter.execute of <gluon.dal.SQLiteAdapter object>>'
p143
ssg74
I1593
sg75
(dp144
I1588
S'        # Prepare functions "write_to_logfile" and "close_logfile"'
p145
sI1589
S'        try:'
p146
sI1590
S'            queries = table._db._adapter._truncate(table, mode)'
p147
sI1591
S'            for query in queries:'
p148
sI1592
S"                self.log(query + '\\n', table)"
p149
sI1593
S'                self.execute(query)'
p150
sI1594
S"            self.log('success!\\n', table)"
p151
sI1595
S'        finally:'
p152
sI1596
S'            pass'
p153
sI1597
S''
ssg87
S'(self=<gluon.dal.SQLiteAdapter object>, table=<Table usage_statistics (id,time_stamp,client_ip...st_http_user_agent,request_language,description)>, mode=None)'
p154
sg89
g134
sa(dp155
g66
S'/home/dell/Downloads/web2py/gluon/dal.py'
p156
sg68
(dp157
S'a'
S"('DELETE FROM usage_statistics;',)"
p158
sS'self'
p159
S'<gluon.dal.SQLiteAdapter object>'
p160
sS'b'
g21
sS'self.log_execute'
p161
S'<bound method SQLiteAdapter.log_execute of <gluon.dal.SQLiteAdapter object>>'
p162
ssg74
I1969
sg75
(dp163
I1964
S'        self.db._timings.append((command,time.time()-t0))'
p164
sI1965
S'        del self.db._timings[:-TIMINGSSIZE]'
p165
sI1966
S'        return ret'
p166
sI1967
S''
sI1968
S'    def execute(self, *a, **b):'
p167
sI1969
S'        return self.log_execute(*a, **b)'
p168
sI1970
S''
sI1971
S'    def represent(self, obj, fieldtype):'
p169
sI1972
S'        field_is_type = fieldtype.startswith'
p170
sI1973
S'        if isinstance(obj, CALLABLETYPES):'
p171
ssg87
S"(self=<gluon.dal.SQLiteAdapter object>, *a=('DELETE FROM usage_statistics;',), **b={})"
p172
sg89
S'execute'
p173
sa(dp174
g66
S'/home/dell/Downloads/web2py/gluon/dal.py'
p175
sg68
(dp176
S'a'
S"('DELETE FROM usage_statistics;',)"
p177
sS'b'
g21
sS'self'
p178
S'<gluon.dal.SQLiteAdapter object>'
p179
sS'ret'
p180
S'undefined'
p181
sS'self.cursor'
p182
S'<sqlite3.Cursor object>'
p183
sS'command'
p184
S"'DELETE FROM usage_statistics;'"
p185
sS'self.cursor.execute'
p186
S'<built-in method execute of sqlite3.Cursor object>'
p187
ssg74
I1963
sg75
(dp188
I1958
S'            command = self.filter_sql_command(command)'
p189
sI1959
S'        if self.db._debug:'
p190
sI1960
S"            LOGGER.debug('SQL: %s' % command)"
p191
sI1961
S'        self.db._lastsql = command'
p192
sI1962
S'        t0 = time.time()'
p193
sI1963
S'        ret = self.cursor.execute(command, *a[1:], **b)'
p194
sI1964
S'        self.db._timings.append((command,time.time()-t0))'
p195
sI1965
S'        del self.db._timings[:-TIMINGSSIZE]'
p196
sI1966
S'        return ret'
p197
sI1967
S''
ssg87
S"(self=<gluon.dal.SQLiteAdapter object>, *a=('DELETE FROM usage_statistics;',), **b={})"
p198
sg89
S'log_execute'
p199
sasS'pyver'
p200
S'Python 2.7.4: /usr/bin/python (prefix: /usr)'
p201
sS'session'
p202
g61
(S's\x02\x13\x00\x00<div><table><tr><td style="font-weight:bold;vertical-align:top;">ansDict</td><td style="vertical-align:top;">:</td><td><div><table></table></div></td></tr><tr><td style="font-weight:bold;vertical-align:top;">auth</td><td style="vertical-align:top;">:</td><td><div><table><tr><td style="font-weight:bold;vertical-align:top;">expiration</td><td style="vertical-align:top;">:</td><td><div>2592000</div></td></tr><tr><td style="font-weight:bold;vertical-align:top;">hmac_key</td><td style="vertical-align:top;">:</td><td><div>fcf54776-6f6c-4ea8-8e75-0ce42be44008</div></td></tr><tr><td style="font-weight:bold;vertical-align:top;">last_visit</td><td style="vertical-align:top;">:</td><td><div>datetime.datetime(2014, 4, 25, 19, 2, 42, 182366)</div></td></tr><tr><td style="font-weight:bold;vertical-align:top;">remember</td><td style="vertical-align:top;">:</td><td><div>True</div></td></tr><tr><td style="font-weight:bold;vertical-align:top;">user</td><td style="vertical-align:top;">:</td><td><div><table><tr><td style="font-weight:bold;vertical-align:top;">date_of_birth</td><td style="vertical-align:top;">:</td><td><div>datetime.date(2014, 4, 18)</div></td></tr><tr><td style="font-weight:bold;vertical-align:top;">email</td><td style="vertical-align:top;">:</td><td><div>sharvil.2009@gmail.com</div></td></tr><tr><td style="font-weight:bold;vertical-align:top;">first_name</td><td style="vertical-align:top;">:</td><td><div>S</div></td></tr><tr><td style="font-weight:bold;vertical-align:top;">gender</td><td style="vertical-align:top;">:</td><td><div>Male</div></td></tr><tr><td style="font-weight:bold;vertical-align:top;">id</td><td style="vertical-align:top;">:</td><td><div>4L</div></td></tr><tr><td style="font-weight:bold;vertical-align:top;">image</td><td style="vertical-align:top;">:</td><td><div>auth_user.image.a648dadb0a08daf4.757365722e6a7067.jpg</div></td></tr><tr><td style="font-weight:bold;vertical-align:top;">last_name</td><td style="vertical-align:top;">:</td><td><div>K</div></td></tr><tr><td style="font-weight:bold;vertical-align:top;">registration_id</td><td style="vertical-align:top;">:</td><td><div></div></td></tr><tr><td style="font-weight:bold;vertical-align:top;">registration_key</td><td style="vertical-align:top;">:</td><td><div></div></td></tr><tr><td style="font-weight:bold;vertical-align:top;">reset_password_key</td><td style="vertical-align:top;">:</td><td><div></div></td></tr><tr><td style="font-weight:bold;vertical-align:top;">username</td><td style="vertical-align:top;">:</td><td><div>sash</div></td></tr></table></div></td></tr><tr><td style="font-weight:bold;vertical-align:top;">user_groups</td><td style="vertical-align:top;">:</td><td><div><table><tr><td style="font-weight:bold;vertical-align:top;">4</td><td style="vertical-align:top;">:</td><td><div>user_4</div></td></tr></table></div></td></tr></table></div></td></tr><tr><td style="font-weight:bold;vertical-align:top;">cat</td><td style="vertical-align:top;">:</td><td><div>1</div></td></tr><tr><td style="font-weight:bold;vertical-align:top;">correctNo</td><td style="vertical-align:top;">:</td><td><div>0</div></td></tr><tr><td style="font-weight:bold;vertical-align:top;">counter</td><td style="vertical-align:top;">:</td><td><div>1</div></td></tr><tr><td style="font-weight:bold;vertical-align:top;">first</td><td style="vertical-align:top;">:</td><td><div>10101</div></td></tr><tr><td style="font-weight:bold;vertical-align:top;">flag</td><td style="vertical-align:top;">:</td><td><div>0</div></td></tr><tr><td style="font-weight:bold;vertical-align:top;">flash</td><td style="vertical-align:top;">:</td><td><div>None</div></td></tr><tr><td style="font-weight:bold;vertical-align:top;">last</td><td style="vertical-align:top;">:</td><td><div>10104</div></td></tr><tr><td style="font-weight:bold;vertical-align:top;">last_orderby</td><td style="vertical-align:top;">:</td><td><div>None</div></td></tr><tr><td style="font-weight:bold;vertical-align:top;">last_query</td><td style="vertical-align:top;">:</td><td><div>db.userScore.id&gt;0</div></td></tr><tr><td style="font-weight:bold;vertical-align:top;">notAttempted</td><td style="vertical-align:top;">:</td><td><div>0</div></td></tr><tr><td style="font-weight:bold;vertical-align:top;">quesNo</td><td style="vertical-align:top;">:</td><td><div>10104</div></td></tr><tr><td style="font-weight:bold;vertical-align:top;">score</td><td style="vertical-align:top;">:</td><td><div>0</div></td></tr><tr><td style="font-weight:bold;vertical-align:top;">subCatNumber</td><td style="vertical-align:top;">:</td><td><div>101</div></td></tr><tr><td style="font-weight:bold;vertical-align:top;">topic</td><td style="vertical-align:top;">:</td><td><div>1</div></td></tr><tr><td style="font-weight:bold;vertical-align:top;">wrongNo</td><td style="vertical-align:top;">:</td><td><div>0</div></td></tr></table></div>'
tRp203
sS'etype'
p204
S"<class 'sqlite3.OperationalError'>"
p205
sS'date'
p206
S'Fri Apr 25 19:23:06 2014'
p207
sS'response'
p208
g61
(S's\xe1\x16\x00\x00<div><table><tr><td style="font-weight:bold;vertical-align:top;">body</td><td style="vertical-align:top;">:</td><td><div>&lt;cStringIO.StringO object at 0x7f395c0ce5e0&gt;</div></td></tr><tr><td style="font-weight:bold;vertical-align:top;">cookies</td><td style="vertical-align:top;">:</td><td><div><table><tr><td style="font-weight:bold;vertical-align:top;">session_id_project</td><td style="vertical-align:top;">:</td><td><div>127.0.0.1-bc10618d-0d07-4169-bae7-d354f661b2d6<table><tr><td style="font-weight:bold;vertical-align:top;">comment</td><td style="vertical-align:top;">:</td><td><div></div></td></tr><tr><td style="font-weight:bold;vertical-align:top;">domain</td><td style="vertical-align:top;">:</td><td><div></div></td></tr><tr><td style="font-weight:bold;vertical-align:top;">expires</td><td style="vertical-align:top;">:</td><td><div></div></td></tr><tr><td style="font-weight:bold;vertical-align:top;">httponly</td><td style="vertical-align:top;">:</td><td><div></div></td></tr><tr><td style="font-weight:bold;vertical-align:top;">max-age</td><td style="vertical-align:top;">:</td><td><div></div></td></tr><tr><td style="font-weight:bold;vertical-align:top;">path</td><td style="vertical-align:top;">:</td><td><div>/</div></td></tr><tr><td style="font-weight:bold;vertical-align:top;">secure</td><td style="vertical-align:top;">:</td><td><div></div></td></tr><tr><td style="font-weight:bold;vertical-align:top;">version</td><td style="vertical-align:top;">:</td><td><div></div></td></tr></table></div></td></tr></table></div></td></tr><tr><td style="font-weight:bold;vertical-align:top;">delimiters</td><td style="vertical-align:top;">:</td><td><div><table><tr><td><div>{{</div></td></tr><tr><td><div>}}</div></td></tr></table></div></td></tr><tr><td style="font-weight:bold;vertical-align:top;">files</td><td style="vertical-align:top;">:</td><td><div><table></table></div></td></tr><tr><td style="font-weight:bold;vertical-align:top;">flash</td><td style="vertical-align:top;">:</td><td><div></div></td></tr><tr><td style="font-weight:bold;vertical-align:top;">generic_patterns</td><td style="vertical-align:top;">:</td><td><div><table><tr><td><div>*</div></td></tr></table></div></td></tr><tr><td style="font-weight:bold;vertical-align:top;">headers</td><td style="vertical-align:top;">:</td><td><div><table><tr><td style="font-weight:bold;vertical-align:top;">X-Powered-By</td><td style="vertical-align:top;">:</td><td><div>web2py</div></td></tr></table></div></td></tr><tr><td style="font-weight:bold;vertical-align:top;">menu</td><td style="vertical-align:top;">:</td><td><div><table></table></div></td></tr><tr><td style="font-weight:bold;vertical-align:top;">meta</td><td style="vertical-align:top;">:</td><td><div><table></table></div></td></tr><tr><td style="font-weight:bold;vertical-align:top;">models_to_run</td><td style="vertical-align:top;">:</td><td><div><table><tr><td><div>^\\w+\\.py$</div></td></tr><tr><td><div>^appadmin/\\w+\\.py$</div></td></tr><tr><td><div>^appadmin/index/\\w+\\.py$</div></td></tr></table></div></td></tr><tr><td style="font-weight:bold;vertical-align:top;">postprocessing</td><td style="vertical-align:top;">:</td><td><div><table></table></div></td></tr><tr><td style="font-weight:bold;vertical-align:top;">session_client</td><td style="vertical-align:top;">:</td><td><div>127.0.0.1</div></td></tr><tr><td style="font-weight:bold;vertical-align:top;">session_cookie_compression_level</td><td style="vertical-align:top;">:</td><td><div>None</div></td></tr><tr><td style="font-weight:bold;vertical-align:top;">session_cookie_expires</td><td style="vertical-align:top;">:</td><td><div>2592000</div></td></tr><tr><td style="font-weight:bold;vertical-align:top;">session_cookie_key</td><td style="vertical-align:top;">:</td><td><div>None</div></td></tr><tr><td style="font-weight:bold;vertical-align:top;">session_data_name</td><td style="vertical-align:top;">:</td><td><div>session_data_project</div></td></tr><tr><td style="font-weight:bold;vertical-align:top;">session_file</td><td style="vertical-align:top;">:</td><td><div>&lt;open file &#x27;/home/dell/Downloads/web2py/applications/project/sessions/127.0.0.1-bc10618d-0d07-4169-bae7-d354f661b2d6&#x27;, mode &#x27;rb+&#x27; at 0x7f39744d0ed0&gt;</div></td></tr><tr><td style="font-weight:bold;vertical-align:top;">session_filename</td><td style="vertical-align:top;">:</td><td><div>/home/dell/Downloads/web2py/applications/project/sessions/127.0.0.1-bc10618d-0d07-4169-bae7-d354f661b2d6</div></td></tr><tr><td style="font-weight:bold;vertical-align:top;">session_hash</td><td style="vertical-align:top;">:</td><td><div>21a0d921561db713a8b89efb8c2ad3f5</div></td></tr><tr><td style="font-weight:bold;vertical-align:top;">session_id</td><td style="vertical-align:top;">:</td><td><div>127.0.0.1-bc10618d-0d07-4169-bae7-d354f661b2d6</div></td></tr><tr><td style="font-weight:bold;vertical-align:top;">session_id_name</td><td style="vertical-align:top;">:</td><td><div>session_id_project</div></td></tr><tr><td style="font-weight:bold;vertical-align:top;">session_locked</td><td style="vertical-align:top;">:</td><td><div>True</div></td></tr><tr><td style="font-weight:bold;vertical-align:top;">session_masterapp</td><td style="vertical-align:top;">:</td><td><div>project</div></td></tr><tr><td style="font-weight:bold;vertical-align:top;">session_new</td><td style="vertical-align:top;">:</td><td><div>False</div></td></tr><tr><td style="font-weight:bold;vertical-align:top;">session_storage_type</td><td style="vertical-align:top;">:</td><td><div>file</div></td></tr><tr><td style="font-weight:bold;vertical-align:top;">status</td><td style="vertical-align:top;">:</td><td><div>200</div></td></tr><tr><td style="font-weight:bold;vertical-align:top;">view</td><td style="vertical-align:top;">:</td><td><div>appadmin/index.html</div></td></tr></table></div>'
tRp209
sS'locals'
p210
(dp211
S'a'
S"('DELETE FROM usage_statistics;',)"
p212
sS'self'
p213
S'<gluon.dal.SQLiteAdapter object>'
p214
sS'b'
g21
sS'command'
p215
S"'DELETE FROM usage_statistics;'"
p216
sS't0'
p217
S'1398433986.798654'
p218
sssS'traceback'
p219
S'Traceback (most recent call last):\n  File "/home/dell/Downloads/web2py/gluon/restricted.py", line 217, in restricted\n    exec ccode in environment\n  File "/home/dell/Downloads/web2py/applications/project/models/db.py", line 172, in <module>\n    db.usage_statistics.truncate()\n  File "/home/dell/Downloads/web2py/gluon/dal.py", line 9190, in truncate\n    return self._db._adapter.truncate(self, mode)\n  File "/home/dell/Downloads/web2py/gluon/dal.py", line 1593, in truncate\n    self.execute(query)\n  File "/home/dell/Downloads/web2py/gluon/dal.py", line 1969, in execute\n    return self.log_execute(*a, **b)\n  File "/home/dell/Downloads/web2py/gluon/dal.py", line 1963, in log_execute\n    ret = self.cursor.execute(command, *a[1:], **b)\nOperationalError: no such table: usage_statistics\n'
p220
s.